

HI-TECH Software LITE Macro Assembler (PIC18) V9.63PL3 build 4692 
                                                       Thu Nov 16 15:42:05 2023

HI-TECH Software Omniscient Code Generator build 4692
     1  000000                     opt subtitle "HI-TECH Software Omniscient Code G
                                 enerator build 4692"
     2                           
     3                           	processor	18F4620
     4  000000                     porta	equ	0F80h
     5  000000                     portb	equ	0F81h
     6  000000                     portc	equ	0F82h
     7  000000                     portd	equ	0F83h
     8  000000                     porte	equ	0F84h
     9  000000                     lata	equ	0F89h
    10  000000                     latb	equ	0F8Ah
    11  000000                     latc	equ	0F8Bh
    12  000000                     latd	equ	0F8Ch
    13  000000                     late	equ	0F8Dh
    14  000000                     trisa	equ	0F92h
    15  000000                     trisb	equ	0F93h
    16  000000                     trisc	equ	0F94h
    17  000000                     trisd	equ	0F95h
    18  000000                     trise	equ	0F96h
    19  000000                     pie1	equ	0F9Dh
    20  000000                     pir1	equ	0F9Eh
    21  000000                     ipr1	equ	0F9Fh
    22  000000                     pie2	equ	0FA0h
    23  000000                     pir2	equ	0FA1h
    24  000000                     ipr2	equ	0FA2h
    25  000000                     t3con	equ	0FB1h
    26  000000                     tmr3l	equ	0FB2h
    27  000000                     tmr3h	equ	0FB3h
    28  000000                     ccp1con	equ	0FBDh
    29  000000                     ccpr1l	equ	0FBEh
    30  000000                     ccpr1h	equ	0FBFh
    31  000000                     adcon1	equ	0FC1h
    32  000000                     adcon0	equ	0FC2h
    33  000000                     adresl	equ	0FC3h
    34  000000                     adresh	equ	0FC4h
    35  000000                     sspcon2	equ	0FC5h
    36  000000                     sspcon1	equ	0FC6h
    37  000000                     sspstat	equ	0FC7h
    38  000000                     sspadd	equ	0FC8h
    39  000000                     sspbuf	equ	0FC9h
    40  000000                     t2con	equ	0FCAh
    41  000000                     pr2	equ	0FCBh
    42  000000                     tmr2	equ	0FCCh
    43  000000                     t1con	equ	0FCDh
    44  000000                     tmr1l	equ	0FCEh
    45  000000                     tmr1h	equ	0FCFh
    46  000000                     rcon	equ	0FD0h
    47  000000                     wdtcon	equ	0FD1h
    48  000000                     lvdcon	equ	0FD2h
    49  000000                     osccon	equ	0FD3h
    50  000000                     t0con	equ	0FD5h
    51  000000                     tmr0l	equ	0FD6h
    52  000000                     tmr0h	equ	0FD7h
    53  000000                     status	equ	0FD8h
    54  000000                     fsr2	equ	0FD9h
    55  000000                     fsr2l	equ	0FD9h
    56  000000                     fsr2h	equ	0FDAh
    57  000000                     plusw2	equ	0FDBh
    58  000000                     preinc2	equ	0FDCh
    59  000000                     postdec2	equ	0FDDh
    60  000000                     postinc2	equ	0FDEh
    61  000000                     indf2	equ	0FDFh
    62  000000                     bsr	equ	0FE0h
    63  000000                     fsr1	equ	0FE1h
    64  000000                     fsr1l	equ	0FE1h
    65  000000                     fsr1h	equ	0FE2h
    66  000000                     plusw1	equ	0FE3h
    67  000000                     preinc1	equ	0FE4h
    68  000000                     postdec1	equ	0FE5h
    69  000000                     postinc1	equ	0FE6h
    70  000000                     indf1	equ	0FE7h
    71  000000                     wreg	equ	0FE8h
    72  000000                     fsr0	equ	0FE9h
    73  000000                     fsr0l	equ	0FE9h
    74  000000                     fsr0h	equ	0FEAh
    75  000000                     plusw0	equ	0FEBh
    76  000000                     preinc0	equ	0FECh
    77  000000                     postdec0	equ	0FEDh
    78  000000                     postinc0	equ	0FEEh
    79  000000                     indf0	equ	0FEFh
    80  000000                     intcon3	equ	0FF0h
    81  000000                     intcon2	equ	0FF1h
    82  000000                     intcon	equ	0FF2h
    83  000000                     prod	equ	0FF3h
    84  000000                     prodl	equ	0FF3h
    85  000000                     prodh	equ	0FF4h
    86  000000                     tablat	equ	0FF5h
    87  000000                     tblptr	equ	0FF6h
    88  000000                     tblptrl	equ	0FF6h
    89  000000                     tblptrh	equ	0FF7h
    90  000000                     tblptru	equ	0FF8h
    91  000000                     pcl	equ	0FF9h
    92  000000                     pclat	equ	0FFAh
    93  000000                     pclath	equ	0FFAh
    94  000000                     pclatu	equ	0FFBh
    95  000000                     stkptr	equ	0FFCh
    96  000000                     tosl	equ	0FFDh
    97  000000                     tosh	equ	0FFEh
    98  000000                     tosu	equ	0FFFh
    99                           	global	__ramtop
   100                           	global	__accesstop
   101                           	GLOBAL	__activetblptr
   102  000000                     __activetblptr	EQU	3
   103                           	GLOBAL	__smallconst,__Lsmallconst
   104  000000                     __smallconst	EQU	__Lsmallconst
   105                           	GLOBAL	__mediumconst,__Lmediumconst
   106  000000                     __mediumconst	EQU	__Lmediumconst
   107                           	GLOBAL	__Ldata
   108  000000                     __Ldata	EQU	0
   109  000000                     main@Hz	equ	??_main+0
   110                           	global	main@Hz
   111  000000                     main@mm	equ	??_main+2
   112                           	global	main@mm
   113  000000                     main@i	equ	??_main+4
   114                           	global	main@i
   115  000000                     ___ftdiv@exp2	equ	??___ftdiv+0
   116                           	global	___ftdiv@exp2
   117  000000                     ___ftdiv@sign1	equ	??___ftdiv+1
   118                           	global	___ftdiv@sign1
   119  000000                     ___ftdiv@exp1	equ	??___ftdiv+2
   120                           	global	___ftdiv@exp1
   121  000000                     ___ftdiv@sign2	equ	??___ftdiv+3
   122                           	global	___ftdiv@sign2
   123  000000                     ___ftdiv@f3	equ	??___ftdiv+4
   124                           	global	___ftdiv@f3
   125  000000                     ___ftdiv@f1	equ	?___ftdiv+0
   126                           	global	___ftdiv@f1
   127  000000                     ___ftdiv@f2	equ	?___ftdiv+3
   128                           	global	___ftdiv@f2
   129  000000                     ___lwtoft@f1	equ	??___lwtoft+0
   130                           	global	___lwtoft@f1
   131  000000                     ___lwtoft@c	equ	?___lwtoft+0
   132                           	global	___lwtoft@c
   133  000000                     ___ftmul@sign1	equ	??___ftmul+0
   134                           	global	___ftmul@sign1
   135  000000                     ___ftmul@exp1	equ	??___ftmul+1
   136                           	global	___ftmul@exp1
   137  000000                     ___ftmul@cntr	equ	??___ftmul+2
   138                           	global	___ftmul@cntr
   139  000000                     ___ftmul@f3	equ	??___ftmul+3
   140                           	global	___ftmul@f3
   141  000000                     ___ftmul@f1	equ	?___ftmul+0
   142                           	global	___ftmul@f1
   143  000000                     ___ftmul@f2	equ	?___ftmul+3
   144                           	global	___ftmul@f2
   145  000000                     ___ftsub@f1	equ	?___ftsub+0
   146                           	global	___ftsub@f1
   147  000000                     ___ftsub@f2	equ	?___ftsub+3
   148                           	global	___ftsub@f2
   149  000000                     ___fttol@sign1	equ	??___fttol+0
   150                           	global	___fttol@sign1
   151  000000                     ___fttol@exp1	equ	??___fttol+1
   152                           	global	___fttol@exp1
   153  000000                     ___fttol@lval	equ	??___fttol+2
   154                           	global	___fttol@lval
   155  000000                     ___fttol@f1	equ	?___fttol+0
   156                           	global	___fttol@f1
   157  000000                     LCD_Move@Row	equ	?_LCD_Move+0
   158                           	global	LCD_Move@Row
   159  000000                     LCD_Move@Col	equ	?_LCD_Move+1
   160                           	global	LCD_Move@Col
   161  000000                     LCD_Out@i	equ	??_LCD_Out+0
   162                           	global	LCD_Out@i
   163  000000                     LCD_Out@A	equ	??_LCD_Out+1
   164                           	global	LCD_Out@A
   165  000000                     LCD_Out@DATA	equ	?_LCD_Out+0
   166                           	global	LCD_Out@DATA
   167  000000                     LCD_Out@D	equ	?_LCD_Out+4
   168                           	global	LCD_Out@D
   169  000000                     LCD_Out@N	equ	?_LCD_Out+5
   170                           	global	LCD_Out@N
   171  000000                     ___ftadd@sign2	equ	??___ftadd+0
   172                           	global	___ftadd@sign2
   173  000000                     ___ftadd@cntr	equ	??___ftadd+1
   174                           	global	___ftadd@cntr
   175  000000                     ___ftadd@sign1	equ	??___ftadd+2
   176                           	global	___ftadd@sign1
   177  000000                     ___ftadd@exp2	equ	??___ftadd+3
   178                           	global	___ftadd@exp2
   179  000000                     ___ftadd@exp1	equ	??___ftadd+4
   180                           	global	___ftadd@exp1
   181  000000                     ___ftadd@f1	equ	?___ftadd+0
   182                           	global	___ftadd@f1
   183  000000                     ___ftadd@f2	equ	?___ftadd+3
   184                           	global	___ftadd@f2
   185  000000                     LCD_Inst@c	equ	?_LCD_Inst+0
   186                           	global	LCD_Inst@c
   187  000000                     LCD_Write@c	equ	?_LCD_Write+0
   188                           	global	LCD_Write@c
   189  000000                     ___almod@sign	equ	??___almod+0
   190                           	global	___almod@sign
   191  000000                     ___almod@counter	equ	??___almod+1
   192                           	global	___almod@counter
   193  000000                     ___almod@dividend	equ	?___almod+0
   194                           	global	___almod@dividend
   195  000000                     ___almod@divisor	equ	?___almod+4
   196                           	global	___almod@divisor
   197  000000                     ___aldiv@counter	equ	??___aldiv+0
   198                           	global	___aldiv@counter
   199  000000                     ___aldiv@sign	equ	??___aldiv+1
   200                           	global	___aldiv@sign
   201  000000                     ___aldiv@quotient	equ	??___aldiv+2
   202                           	global	___aldiv@quotient
   203  000000                     ___aldiv@dividend	equ	?___aldiv+0
   204                           	global	___aldiv@dividend
   205  000000                     ___aldiv@divisor	equ	?___aldiv+4
   206                           	global	___aldiv@divisor
   207  000000                     Wait_ms@i	equ	??_Wait_ms+0
   208                           	global	Wait_ms@i
   209  000000                     Wait_ms@j	equ	??_Wait_ms+2
   210                           	global	Wait_ms@j
   211  000000                     Wait_ms@X	equ	?_Wait_ms+0
   212                           	global	Wait_ms@X
   213  000000                     ___ftunpack@sign	equ	??___ftunpack+0
   214                           	global	___ftunpack@sign
   215  000000                     ___ftunpack@arg	equ	?___ftunpack+0
   216                           	global	___ftunpack@arg
   217  000000                     ___ftunpack@exp	equ	?___ftunpack+2
   218                           	global	___ftunpack@exp
   219  000000                     ___ftpack@arg	equ	?___ftpack+0
   220                           	global	___ftpack@arg
   221  000000                     ___ftpack@exp	equ	?___ftpack+2
   222                           	global	___ftpack@exp
   223  000000                     LCD_Pause@x	equ	??_LCD_Pause+0
   224                           	global	LCD_Pause@x
   225                           ;Data sizes: Strings 0, constant 42, data 0, bss
                                  0, persistent 0 stack 54
   226                           	global	_main
   227                           	global	??_main
   228                           	global	?_main
   229                                   psect   text0,class=CODE,space=0,reloc=2
   230                           
   231                           	opt lm
   232                           	file	"A:\OneDrive\School\College\Junior\Fa23\Em
                                 b Sys\c\hw10\timer1compare\compare.c"
   233                           	line	45
   234  000000                     	__size_of_main	equ	__end_of_main-_main
   235                           ;compare.c: 44: void main(void)
   236                           ;compare.c: 45: {
   237                           	
   238  00102C                     _main:		; BSR set to: ?
   239                           
   240                           	opt stack 30
   241                           	line	48
   242  00102C  0E00               	movlw	low(0)
   243  00102E  6E92               	movwf	((c:3986)),c	;volatile
   244                           	line	49
   245                           ;compare.c: 49: TRISB = 0xFF;
   246  001030  6893               	setf	((c:3987)),c	;volatile
   247                           	line	50
   248                           ;compare.c: 50: TRISC = 0x04;
   249  001032  0E04               	movlw	low(04h)
   250  001034  6E94               	movwf	((c:3988)),c	;volatile
   251                           	line	51
   252                           ;compare.c: 51: TRISD = 0;
   253  001036  0E00               	movlw	low(0)
   254  001038  6E95               	movwf	((c:3989)),c	;volatile
   255                           	line	52
   256                           ;compare.c: 52: ADCON1 = 0x0F;
   257  00103A  0101               	movlb	1	; () banked
   258  00103C  6F06               	movwf	(??_main+6+0)&0ffh
   259  00103E  0E0F               	movlw	low(0Fh)
   260  001040  6EC1               	movwf	((c:4033)),c
   261  001042  0101               	movlb	1	; () banked
   262  001044  5106               	movf	(??_main+6+0)&0ffh,w
   263                           	line	53
   264                           ;compare.c: 53: LCD_Init();
   265  001046  EC84  F011         	call	_LCD_Init	;wreg free
   266                           	line	54
   267                           ;compare.c: 54: LCD_Move(0,0); for (i=0; i<20; i
                                 ++) LCD_Write(MSG0[i]);
   268  00104A  0101               	movlb	1	; () banked
   269  00104C  6F06               	movwf	(??_main+6+0)&0ffh
   270  00104E  0E00               	movlw	low(0)
   271  001050  0101               	movlb	1	; () banked
   272  001052  0101               	movlb	1	; () banked
   273  001054  6F09               	movwf	(0+(?_LCD_Move+01h))&0ffh
   274  001056  0101               	movlb	1	; () banked
   275  001058  5106               	movf	(??_main+6+0)&0ffh,w
   276  00105A  0101               	movlb	1	; () banked
   277  00105C  6F07               	movwf	(??_main+7+0)&0ffh
   278  00105E  0E00               	movlw	low(0)
   279  001060  0101               	movlb	1	; () banked
   280  001062  0101               	movlb	1	; () banked
   281  001064  6F08               	movwf	((?_LCD_Move))&0ffh
   282  001066  0101               	movlb	1	; () banked
   283  001068  5107               	movf	(??_main+7+0)&0ffh,w
   284  00106A  ECCD  F011         	call	_LCD_Move	;wreg free
   285  00106E  0E00               	movlw	low(0)
   286  001070  0101               	movlb	1	; () banked
   287  001072  0101               	movlb	1	; () banked
   288  001074  6F04               	movwf	((main@i))&0ffh
   289  001076  0E00               	movlw	high(0)
   290  001078  0101               	movlb	1	; () banked
   291  00107A  6F05               	movwf	((main@i+1))&0ffh
   292  00107C  0E14               	movlw	014h
   293  00107E  0101               	movlb	1	; () banked
   294  001080  0101               	movlb	1	; () banked
   295  001082  5D04               	subwf	((main@i))&0ffh,w
   296  001084  0E00               	movlw	0
   297  001086  0101               	movlb	1	; () banked
   298  001088  5905               	subwfb	((main@i+1))&0ffh,w
   299  00108A  A0D8               	btfss	status,0
   300  00108C  D001               	goto	u2591
   301  00108E  D001               	goto	u2590
   302  001090                     u2591:
   303  001090  D001               	goto	l174
   304  001092                     u2590:
   305  001092  D020               	goto	l175
   306                           	
   307  001094                     l174:		; BSR set to: ?
   308                           
   309  001094  0E01               	movlw	low((_MSG0))
   310  001096  0101               	movlb	1	; () banked
   311  001098  0101               	movlb	1	; () banked
   312  00109A  2504               	addwf	((main@i))&0ffh,w
   313  00109C  6EF6               	movwf	tblptrl
   314  00109E  6AF7               	clrf	tblptrh
   315  0010A0  0E10               	movlw	high((_MSG0))
   316  0010A2  22F7               	addwfc	tblptrh
   317  0010A4  6AF8               	clrf	tblptru
   318  0010A6  0E00               	movlw	low highword(__mediumconst)
   319  0010A8  22F8               	addwfc	tblptru
   320  0010AA  0008               	tblrd	*
   321                           	
   322  0010AC  0101               	movlb	1	; () banked
   323  0010AE  CFF5 F11A          	movff	tablat,(?_LCD_Write)
   324  0010B2  ECD2  F012         	call	_LCD_Write	;wreg free
   325  0010B6  0101               	movlb	1	; () banked
   326  0010B8  0101               	movlb	1	; () banked
   327  0010BA  4B04               	infsnz	((main@i))&0ffh
   328  0010BC  2B05               	incf	((main@i+1))&0ffh
   329  0010BE  0E14               	movlw	014h
   330  0010C0  0101               	movlb	1	; () banked
   331  0010C2  0101               	movlb	1	; () banked
   332  0010C4  5D04               	subwf	((main@i))&0ffh,w
   333  0010C6  0E00               	movlw	0
   334  0010C8  0101               	movlb	1	; () banked
   335  0010CA  5905               	subwfb	((main@i+1))&0ffh,w
   336  0010CC  A0D8               	btfss	status,0
   337  0010CE  D001               	goto	u2601
   338  0010D0  D001               	goto	u2600
   339  0010D2                     u2601:
   340  0010D2  D7E0               	goto	l174
   341  0010D4                     u2600:
   342                           	
   343  0010D4                     l175:		; BSR set to: ?
   344                           
   345                           	line	55
   346                           ;compare.c: 55: LCD_Move(1,0); for (i=0; i<20; i
                                 ++) LCD_Write(MSG1[i]);
   347  0010D4  0101               	movlb	1	; () banked
   348  0010D6  6F06               	movwf	(??_main+6+0)&0ffh
   349  0010D8  0E00               	movlw	low(0)
   350  0010DA  0101               	movlb	1	; () banked
   351  0010DC  0101               	movlb	1	; () banked
   352  0010DE  6F09               	movwf	(0+(?_LCD_Move+01h))&0ffh
   353  0010E0  0101               	movlb	1	; () banked
   354  0010E2  5106               	movf	(??_main+6+0)&0ffh,w
   355  0010E4  0101               	movlb	1	; () banked
   356  0010E6  6F07               	movwf	(??_main+7+0)&0ffh
   357  0010E8  0E01               	movlw	low(01h)
   358  0010EA  0101               	movlb	1	; () banked
   359  0010EC  0101               	movlb	1	; () banked
   360  0010EE  6F08               	movwf	((?_LCD_Move))&0ffh
   361  0010F0  0101               	movlb	1	; () banked
   362  0010F2  5107               	movf	(??_main+7+0)&0ffh,w
   363  0010F4  ECCD  F011         	call	_LCD_Move	;wreg free
   364  0010F8  0E00               	movlw	low(0)
   365  0010FA  0101               	movlb	1	; () banked
   366  0010FC  0101               	movlb	1	; () banked
   367  0010FE  6F04               	movwf	((main@i))&0ffh
   368  001100  0E00               	movlw	high(0)
   369  001102  0101               	movlb	1	; () banked
   370  001104  6F05               	movwf	((main@i+1))&0ffh
   371  001106  0E14               	movlw	014h
   372  001108  0101               	movlb	1	; () banked
   373  00110A  0101               	movlb	1	; () banked
   374  00110C  5D04               	subwf	((main@i))&0ffh,w
   375  00110E  0E00               	movlw	0
   376  001110  0101               	movlb	1	; () banked
   377  001112  5905               	subwfb	((main@i+1))&0ffh,w
   378  001114  A0D8               	btfss	status,0
   379  001116  D001               	goto	u2611
   380  001118  D001               	goto	u2610
   381  00111A                     u2611:
   382  00111A  D001               	goto	l177
   383  00111C                     u2610:
   384  00111C  D020               	goto	l178
   385                           	
   386  00111E                     l177:		; BSR set to: ?
   387                           
   388  00111E  0E16               	movlw	low((_MSG1))
   389  001120  0101               	movlb	1	; () banked
   390  001122  0101               	movlb	1	; () banked
   391  001124  2504               	addwf	((main@i))&0ffh,w
   392  001126  6EF6               	movwf	tblptrl
   393  001128  6AF7               	clrf	tblptrh
   394  00112A  0E10               	movlw	high((_MSG1))
   395  00112C  22F7               	addwfc	tblptrh
   396  00112E  6AF8               	clrf	tblptru
   397  001130  0E00               	movlw	low highword(__mediumconst)
   398  001132  22F8               	addwfc	tblptru
   399  001134  0008               	tblrd	*
   400                           	
   401  001136  0101               	movlb	1	; () banked
   402  001138  CFF5 F11A          	movff	tablat,(?_LCD_Write)
   403  00113C  ECD2  F012         	call	_LCD_Write	;wreg free
   404  001140  0101               	movlb	1	; () banked
   405  001142  0101               	movlb	1	; () banked
   406  001144  4B04               	infsnz	((main@i))&0ffh
   407  001146  2B05               	incf	((main@i+1))&0ffh
   408  001148  0E14               	movlw	014h
   409  00114A  0101               	movlb	1	; () banked
   410  00114C  0101               	movlb	1	; () banked
   411  00114E  5D04               	subwf	((main@i))&0ffh,w
   412  001150  0E00               	movlw	0
   413  001152  0101               	movlb	1	; () banked
   414  001154  5905               	subwfb	((main@i+1))&0ffh,w
   415  001156  A0D8               	btfss	status,0
   416  001158  D001               	goto	u2621
   417  00115A  D001               	goto	u2620
   418  00115C                     u2621:
   419  00115C  D7E0               	goto	l177
   420  00115E                     u2620:
   421                           	
   422  00115E                     l178:		; BSR set to: ?
   423                           
   424                           	line	56
   425                           ;compare.c: 56: Wait_ms(100);
   426  00115E  0E64               	movlw	low(064h)
   427  001160  0101               	movlb	1	; () banked
   428  001162  0101               	movlb	1	; () banked
   429  001164  6F0C               	movwf	((?_Wait_ms))&0ffh
   430  001166  0E00               	movlw	high(064h)
   431  001168  0101               	movlb	1	; () banked
   432  00116A  6F0D               	movwf	((?_Wait_ms+1))&0ffh
   433  00116C  EC0F  F012         	call	_Wait_ms	;wreg free
   434                           	line	57
   435                           ;compare.c: 57: TIME = 0;
   436  001170  0E00               	movlw	low(0)
   437  001172  6E06               	movwf	((c:6)),c
   438  001174  0E00               	movlw	high(0)
   439  001176  6E07               	movwf	((c:6+1)),c
   440  001178  0E00               	movlw	low highword(0)
   441  00117A  6E08               	movwf	((c:6+2)),c
   442  00117C  0E00               	movlw	high highword(0)
   443  00117E  6E09               	movwf	((c:6+3)),c
   444                           	line	59
   445                           ;compare.c: 59: T0CS = 0;
   446  001180  9AD5               	bcf	c:(32429/8),(32429)&7
   447                           	line	60
   448                           ;compare.c: 60: T0CON = 0x82;
   449  001182  0101               	movlb	1	; () banked
   450  001184  6F06               	movwf	(??_main+6+0)&0ffh
   451  001186  0E82               	movlw	low(082h)
   452  001188  6ED5               	movwf	((c:4053)),c
   453  00118A  0101               	movlb	1	; () banked
   454  00118C  5106               	movf	(??_main+6+0)&0ffh,w
   455                           	line	61
   456                           ;compare.c: 61: TMR0ON = 1;
   457  00118E  8ED5               	bsf	c:(32431/8),(32431)&7
   458                           	line	62
   459                           ;compare.c: 62: TMR0IE = 1;
   460  001190  8AF2               	bsf	c:(32661/8),(32661)&7
   461                           	line	63
   462                           ;compare.c: 63: TMR0IP = 1;
   463  001192  84F1               	bsf	c:(32650/8),(32650)&7
   464                           	line	64
   465                           ;compare.c: 64: PEIE = 1;
   466  001194  8CF2               	bsf	c:(32662/8),(32662)&7
   467                           	line	66
   468                           ;compare.c: 66: TMR1CS = 0;
   469  001196  92CD               	bcf	c:(32361/8),(32361)&7
   470                           	line	67
   471                           ;compare.c: 67: T1CON = 0x81;
   472  001198  0101               	movlb	1	; () banked
   473  00119A  6F06               	movwf	(??_main+6+0)&0ffh
   474  00119C  0E81               	movlw	low(081h)
   475  00119E  6ECD               	movwf	((c:4045)),c
   476  0011A0  0101               	movlb	1	; () banked
   477  0011A2  5106               	movf	(??_main+6+0)&0ffh,w
   478                           	line	68
   479                           ;compare.c: 68: TMR1ON = 1;
   480  0011A4  80CD               	bsf	c:(32360/8),(32360)&7
   481                           	line	69
   482                           ;compare.c: 69: TMR1IE = 1;
   483  0011A6  809D               	bsf	c:(31976/8),(31976)&7
   484                           	line	70
   485                           ;compare.c: 70: TMR1IP = 1;
   486  0011A8  809F               	bsf	c:(31992/8),(31992)&7
   487                           	line	71
   488                           ;compare.c: 71: PEIE = 1;
   489  0011AA  8CF2               	bsf	c:(32662/8),(32662)&7
   490                           	line	73
   491                           ;compare.c: 73: TRISC2 = 1;
   492  0011AC  8494               	bsf	c:(31906/8),(31906)&7	;volatile
   493                           	line	74
   494                           ;compare.c: 74: CCP1CON = 0x05;
   495  0011AE  0E05               	movlw	low(05h)
   496  0011B0  6EBD               	movwf	((c:4029)),c	;volatile
   497                           	line	75
   498                           ;compare.c: 75: CCP1IE = 1;
   499  0011B2  849D               	bsf	c:(31978/8),(31978)&7
   500                           	line	76
   501                           ;compare.c: 76: PEIE = 1;
   502  0011B4  8CF2               	bsf	c:(32662/8),(32662)&7
   503                           	line	78
   504                           ;compare.c: 78: TRISC1 = 0;
   505  0011B6  9294               	bcf	c:(31905/8),(31905)&7	;volatile
   506                           	line	79
   507                           ;compare.c: 79: CCP2CON = 0x08;
   508  0011B8  0E08               	movlw	low(08h)
   509  0011BA  6EBA               	movwf	((c:4026)),c	;volatile
   510                           	line	80
   511                           ;compare.c: 80: CCP2IE = 1;
   512  0011BC  80A0               	bsf	c:(32000/8),(32000)&7
   513                           	line	81
   514                           ;compare.c: 81: PEIE = 1;
   515  0011BE  8CF2               	bsf	c:(32662/8),(32662)&7
   516                           	line	83
   517                           ;compare.c: 83: GIE = 1;
   518  0011C0  8EF2               	bsf	c:(32663/8),(32663)&7
   519                           	line	85
   520                           ;compare.c: 85: while(1) {
   521                           	
   522  0011C2                     l181:		; BSR set to: ?
   523                           
   524                           	line	86
   525                           ;compare.c: 86: mm = N1 * 1.715;
   526  0011C2  C00A F108          	movff	(c:10),(?___lwtoft)
   527  0011C6  C00B F109          	movff	(c:10+1),(?___lwtoft+1)
   528  0011CA  EC4E  F012         	call	___lwtoft	;wreg free
   529  0011CE  C108  F108         	movff	0+?___lwtoft,(?___ftmul)
   530  0011D2  C109  F109         	movff	1+?___lwtoft,(?___ftmul+1)
   531  0011D6  C10A  F10A         	movff	2+?___lwtoft,(?___ftmul+2)
   532  0011DA  0E85               	movlw	low(float24(1.7150000000000001))
   533  0011DC  0101               	movlb	1	; () banked
   534  0011DE  0101               	movlb	1	; () banked
   535  0011E0  6F0B               	movwf	(0+(?___ftmul+03h))&0ffh
   536  0011E2  0EDB               	movlw	high(float24(1.7150000000000001))
   537  0011E4  0101               	movlb	1	; () banked
   538  0011E6  0101               	movlb	1	; () banked
   539  0011E8  6F0C               	movwf	(1+(?___ftmul+03h))&0ffh
   540  0011EA  0E3F               	movlw	low highword(float24(1.7150000000000001))
   541  0011EC  0101               	movlb	1	; () banked
   542  0011EE  0101               	movlb	1	; () banked
   543  0011F0  6F0D               	movwf	(2+(?___ftmul+03h))&0ffh
   544                           
   545  0011F2  EC4B  F00C         	call	___ftmul	;wreg free
   546  0011F6  C108  F108         	movff	0+?___ftmul,(?___fttol)
   547  0011FA  C109  F109         	movff	1+?___ftmul,(?___fttol+1)
   548  0011FE  C10A  F10A         	movff	2+?___ftmul,(?___fttol+2)
   549  001202  EC76  F00F         	call	___fttol	;wreg free
   550  001206  C108  F102         	movff	0+?___fttol,(main@mm)
   551  00120A  C109  F103         	movff	1+?___fttol,(main@mm+1)
   552                           	line	87
   553                           ;compare.c: 87: N2 = 47779 - 1.68*N1;
   554  00120E  C00A F108          	movff	(c:10),(?___lwtoft)
   555  001212  C00B F109          	movff	(c:10+1),(?___lwtoft+1)
   556  001216  EC4E  F012         	call	___lwtoft	;wreg free
   557  00121A  C108  F108         	movff	0+?___lwtoft,(?___ftmul)
   558  00121E  C109  F109         	movff	1+?___lwtoft,(?___ftmul+1)
   559  001222  C10A  F10A         	movff	2+?___lwtoft,(?___ftmul+2)
   560  001226  0E0A               	movlw	low(float24(1.6799999999999999))
   561  001228  0101               	movlb	1	; () banked
   562  00122A  0101               	movlb	1	; () banked
   563  00122C  6F0B               	movwf	(0+(?___ftmul+03h))&0ffh
   564  00122E  0ED7               	movlw	high(float24(1.6799999999999999))
   565  001230  0101               	movlb	1	; () banked
   566  001232  0101               	movlb	1	; () banked
   567  001234  6F0C               	movwf	(1+(?___ftmul+03h))&0ffh
   568  001236  0E3F               	movlw	low highword(float24(1.6799999999999999))
   569  001238  0101               	movlb	1	; () banked
   570  00123A  0101               	movlb	1	; () banked
   571  00123C  6F0D               	movwf	(2+(?___ftmul+03h))&0ffh
   572                           
   573  00123E  EC4B  F00C         	call	___ftmul	;wreg free
   574  001242  C108  F10B         	movff	0+?___ftmul,0+(?___ftsub+03h)
   575  001246  C109  F10C         	movff	1+?___ftmul,1+(?___ftsub+03h)
   576  00124A  C10A  F10D         	movff	2+?___ftmul,2+(?___ftsub+03h)
   577  00124E  0EA3               	movlw	low(float24(47779.000000000000))
   578  001250  0101               	movlb	1	; () banked
   579  001252  0101               	movlb	1	; () banked
   580  001254  6F08               	movwf	((?___ftsub))&0ffh
   581  001256  0E3A               	movlw	high(float24(47779.000000000000))
   582  001258  0101               	movlb	1	; () banked
   583  00125A  0101               	movlb	1	; () banked
   584  00125C  6F09               	movwf	((?___ftsub+1))&0ffh
   585  00125E  0E47               	movlw	low highword(float24(47779.000000000000))
   586  001260  0101               	movlb	1	; () banked
   587  001262  0101               	movlb	1	; () banked
   588  001264  6F0A               	movwf	((?___ftsub+2))&0ffh
   589                           
   590  001266  ECB0  F012         	call	___ftsub	;wreg free
   591  00126A  C108  F108         	movff	0+?___ftsub,(?___fttol)
   592  00126E  C109  F109         	movff	1+?___ftsub,(?___fttol+1)
   593  001272  C10A  F10A         	movff	2+?___ftsub,(?___fttol+2)
   594  001276  EC76  F00F         	call	___fttol	;wreg free
   595  00127A  C108  F004         	movff	0+?___fttol,(c:4)
   596  00127E  C109  F005         	movff	1+?___fttol,(c:4+1)
   597                           	line	88
   598                           ;compare.c: 88: Hz = 5000000.0 / N2;
   599  001282  C004 F108          	movff	(c:4),(?___lwtoft)
   600  001286  C005 F109          	movff	(c:4+1),(?___lwtoft+1)
   601  00128A  EC4E  F012         	call	___lwtoft	;wreg free
   602  00128E  C108  F10B         	movff	0+?___lwtoft,0+(?___ftdiv+03h)
   603  001292  C109  F10C         	movff	1+?___lwtoft,1+(?___ftdiv+03h)
   604  001296  C10A  F10D         	movff	2+?___lwtoft,2+(?___ftdiv+03h)
   605  00129A  0E97               	movlw	low(float24(5000000.0000000000))
   606  00129C  0101               	movlb	1	; () banked
   607  00129E  0101               	movlb	1	; () banked
   608  0012A0  6F08               	movwf	((?___ftdiv))&0ffh
   609  0012A2  0E98               	movlw	high(float24(5000000.0000000000))
   610  0012A4  0101               	movlb	1	; () banked
   611  0012A6  0101               	movlb	1	; () banked
   612  0012A8  6F09               	movwf	((?___ftdiv+1))&0ffh
   613  0012AA  0E4A               	movlw	low highword(float24(5000000.0000000000))
   614  0012AC  0101               	movlb	1	; () banked
   615  0012AE  0101               	movlb	1	; () banked
   616  0012B0  6F0A               	movwf	((?___ftdiv+2))&0ffh
   617                           
   618  0012B2  EC27  F00D         	call	___ftdiv	;wreg free
   619  0012B6  C108  F108         	movff	0+?___ftdiv,(?___fttol)
   620  0012BA  C109  F109         	movff	1+?___ftdiv,(?___fttol+1)
   621  0012BE  C10A  F10A         	movff	2+?___ftdiv,(?___fttol+2)
   622  0012C2  EC76  F00F         	call	___fttol	;wreg free
   623  0012C6  C108  F100         	movff	0+?___fttol,(main@Hz)
   624  0012CA  C109  F101         	movff	1+?___fttol,(main@Hz+1)
   625                           	line	89
   626                           ;compare.c: 89: LCD_Move(0,5); LCD_Out(mm, 7, 2)
                                 ;
   627  0012CE  0101               	movlb	1	; () banked
   628  0012D0  6F06               	movwf	(??_main+6+0)&0ffh
   629  0012D2  0E05               	movlw	low(05h)
   630  0012D4  0101               	movlb	1	; () banked
   631  0012D6  0101               	movlb	1	; () banked
   632  0012D8  6F09               	movwf	(0+(?_LCD_Move+01h))&0ffh
   633  0012DA  0101               	movlb	1	; () banked
   634  0012DC  5106               	movf	(??_main+6+0)&0ffh,w
   635  0012DE  0101               	movlb	1	; () banked
   636  0012E0  6F07               	movwf	(??_main+7+0)&0ffh
   637  0012E2  0E00               	movlw	low(0)
   638  0012E4  0101               	movlb	1	; () banked
   639  0012E6  0101               	movlb	1	; () banked
   640  0012E8  6F08               	movwf	((?_LCD_Move))&0ffh
   641  0012EA  0101               	movlb	1	; () banked
   642  0012EC  5107               	movf	(??_main+7+0)&0ffh,w
   643  0012EE  ECCD  F011         	call	_LCD_Move	;wreg free
   644  0012F2  0101               	movlb	1	; () banked
   645  0012F4  6F06               	movwf	(??_main+6+0)&0ffh
   646  0012F6  0E02               	movlw	low(02h)
   647  0012F8  0101               	movlb	1	; () banked
   648  0012FA  0101               	movlb	1	; () banked
   649  0012FC  6F0D               	movwf	(0+(?_LCD_Out+05h))&0ffh
   650  0012FE  0101               	movlb	1	; () banked
   651  001300  5106               	movf	(??_main+6+0)&0ffh,w
   652  001302  0101               	movlb	1	; () banked
   653  001304  6F07               	movwf	(??_main+7+0)&0ffh
   654  001306  0E07               	movlw	low(07h)
   655  001308  0101               	movlb	1	; () banked
   656  00130A  0101               	movlb	1	; () banked
   657  00130C  6F0C               	movwf	(0+(?_LCD_Out+04h))&0ffh
   658  00130E  0101               	movlb	1	; () banked
   659  001310  5107               	movf	(??_main+7+0)&0ffh,w
   660  001312  0101               	movlb	1	; () banked
   661  001314  0101               	movlb	1	; () banked
   662  001316  C102  F108         	movff	(main@mm),(?_LCD_Out)
   663  00131A  0101               	movlb	1	; () banked
   664  00131C  0101               	movlb	1	; () banked
   665  00131E  C103  F109         	movff	(main@mm+1),(?_LCD_Out+1)
   666  001322  0101               	movlb	1	; () banked
   667  001324  0101               	movlb	1	; () banked
   668  001326  6B0A               	clrf	((?_LCD_Out+2))&0ffh
   669  001328  0101               	movlb	1	; () banked
   670  00132A  6B0B               	clrf	((?_LCD_Out+3))&0ffh
   671                           
   672  00132C  ECB2  F00E         	call	_LCD_Out	;wreg free
   673                           	line	90
   674                           ;compare.c: 90: LCD_Move(1,5); LCD_Out(Hz, 4, 0)
                                 ;
   675  001330  0101               	movlb	1	; () banked
   676  001332  6F06               	movwf	(??_main+6+0)&0ffh
   677  001334  0E05               	movlw	low(05h)
   678  001336  0101               	movlb	1	; () banked
   679  001338  0101               	movlb	1	; () banked
   680  00133A  6F09               	movwf	(0+(?_LCD_Move+01h))&0ffh
   681  00133C  0101               	movlb	1	; () banked
   682  00133E  5106               	movf	(??_main+6+0)&0ffh,w
   683  001340  0101               	movlb	1	; () banked
   684  001342  6F07               	movwf	(??_main+7+0)&0ffh
   685  001344  0E01               	movlw	low(01h)
   686  001346  0101               	movlb	1	; () banked
   687  001348  0101               	movlb	1	; () banked
   688  00134A  6F08               	movwf	((?_LCD_Move))&0ffh
   689  00134C  0101               	movlb	1	; () banked
   690  00134E  5107               	movf	(??_main+7+0)&0ffh,w
   691  001350  ECCD  F011         	call	_LCD_Move	;wreg free
   692  001354  0101               	movlb	1	; () banked
   693  001356  6F06               	movwf	(??_main+6+0)&0ffh
   694  001358  0E00               	movlw	low(0)
   695  00135A  0101               	movlb	1	; () banked
   696  00135C  0101               	movlb	1	; () banked
   697  00135E  6F0D               	movwf	(0+(?_LCD_Out+05h))&0ffh
   698  001360  0101               	movlb	1	; () banked
   699  001362  5106               	movf	(??_main+6+0)&0ffh,w
   700  001364  0101               	movlb	1	; () banked
   701  001366  6F07               	movwf	(??_main+7+0)&0ffh
   702  001368  0E04               	movlw	low(04h)
   703  00136A  0101               	movlb	1	; () banked
   704  00136C  0101               	movlb	1	; () banked
   705  00136E  6F0C               	movwf	(0+(?_LCD_Out+04h))&0ffh
   706  001370  0101               	movlb	1	; () banked
   707  001372  5107               	movf	(??_main+7+0)&0ffh,w
   708  001374  0101               	movlb	1	; () banked
   709  001376  0101               	movlb	1	; () banked
   710  001378  C100  F108         	movff	(main@Hz),(?_LCD_Out)
   711  00137C  0101               	movlb	1	; () banked
   712  00137E  0101               	movlb	1	; () banked
   713  001380  C101  F109         	movff	(main@Hz+1),(?_LCD_Out+1)
   714  001384  0101               	movlb	1	; () banked
   715  001386  0101               	movlb	1	; () banked
   716  001388  6B0A               	clrf	((?_LCD_Out+2))&0ffh
   717  00138A  0101               	movlb	1	; () banked
   718  00138C  6B0B               	clrf	((?_LCD_Out+3))&0ffh
   719                           
   720  00138E  ECB2  F00E         	call	_LCD_Out	;wreg free
   721                           	line	91
   722                           	
   723  001392                     l180:		; BSR set to: ?
   724                           
   725                           	line	85
   726  001392  D717               	goto	l181
   727                           	global	start
   728  001394  EF0C  F004         	goto	start
   729                           	opt stack 0
   730                           GLOBAL __end_of_main
   731  001398                     	__end_of_main:
   732                           	FNSIZE	_main,8,0
   733                           ; =============== function _main ends ==========
                                 ==
   734                           
   735                                   psect   text1,class=CODE,space=0,reloc=2
   736                           	line	92
   737                           
   738                           	opt lm
   739                           	signat	_main,88
   740                           	global	___ftdiv
   741                           	global	??___ftdiv
   742                           	global	?___ftdiv
   743                           	file	"C:\Program Files (x86)\HI-TECH Software\P
                                 ICC-18\PRO\9.63\sources\ftdiv.c"
   744                           	line	19
   745  000000                     	__size_of___ftdiv	equ	__end_of___ftdiv-___ftdiv
   746                           	
   747  001A4E                     ___ftdiv:		; BSR set to: ?
   748                           
   749                           	opt stack 29
   750                           	line	23
   751  001A4E  0E00               	movlw	low(0)
   752  001A50  0101               	movlb	1	; () banked
   753  001A52  0101               	movlb	1	; () banked
   754  001A54  6F12               	movwf	((___ftdiv@f3))&0ffh
   755  001A56  0E00               	movlw	high(0)
   756  001A58  0101               	movlb	1	; () banked
   757  001A5A  0101               	movlb	1	; () banked
   758  001A5C  6F13               	movwf	((___ftdiv@f3+1))&0ffh
   759  001A5E  0E00               	movlw	low highword(0)
   760  001A60  0101               	movlb	1	; () banked
   761  001A62  0101               	movlb	1	; () banked
   762  001A64  6F14               	movwf	((___ftdiv@f3+2))&0ffh
   763                           
   764                           	line	24
   765  001A66  0101               	movlb	1	; () banked
   766  001A68  0E10               	movlw	low(___ftdiv@exp1)
   767  001A6A  0101               	movlb	1	; () banked
   768  001A6C  0101               	movlb	1	; () banked
   769  001A6E  6F1C               	movwf	(0+(?___ftunpack+02h))&0ffh
   770  001A70  0101               	movlb	1	; () banked
   771  001A72  0E01               	movlw	high(___ftdiv@exp1)
   772  001A74  0101               	movlb	1	; () banked
   773  001A76  6F1D               	movwf	(1+(?___ftunpack+02h))&0ffh
   774  001A78  0101               	movlb	1	; () banked
   775  001A7A  0E08               	movlw	low(___ftdiv@f1)
   776  001A7C  0101               	movlb	1	; () banked
   777  001A7E  0101               	movlb	1	; () banked
   778  001A80  6F1A               	movwf	((?___ftunpack))&0ffh
   779  001A82  0101               	movlb	1	; () banked
   780  001A84  0E01               	movlw	high(___ftdiv@f1)
   781  001A86  0101               	movlb	1	; () banked
   782  001A88  6F1B               	movwf	((?___ftunpack+1))&0ffh
   783  001A8A  EC2F  F011         	call	___ftunpack	;wreg free
   784  001A8E  0101               	movlb	1	; () banked
   785  001A90  0101               	movlb	1	; () banked
   786  001A92  6F0F               	movwf	((___ftdiv@sign1))&0ffh
   787                           	line	25
   788  001A94  0101               	movlb	1	; () banked
   789  001A96  0101               	movlb	1	; () banked
   790  001A98  6710               	tstfsz	((___ftdiv@exp1))&0ffh
   791  001A9A  D001               	goto	u2631
   792  001A9C  D001               	goto	u2630
   793  001A9E                     u2631:
   794  001A9E  D007               	goto	l406
   795  001AA0                     u2630:
   796                           	line	26
   797  001AA0  C112  F108         	movff	(___ftdiv@f3),(?___ftdiv)
   798  001AA4  C113  F109         	movff	(___ftdiv@f3+1),(?___ftdiv+1)
   799  001AA8  C114  F10A         	movff	(___ftdiv@f3+2),(?___ftdiv+2)
   800  001AAC  D096               	goto	l405
   801                           	
   802  001AAE                     l406:		; BSR set to: ?
   803                           
   804                           	line	27
   805  001AAE  0101               	movlb	1	; () banked
   806  001AB0  0E0E               	movlw	low(___ftdiv@exp2)
   807  001AB2  0101               	movlb	1	; () banked
   808  001AB4  0101               	movlb	1	; () banked
   809  001AB6  6F1C               	movwf	(0+(?___ftunpack+02h))&0ffh
   810  001AB8  0101               	movlb	1	; () banked
   811  001ABA  0E01               	movlw	high(___ftdiv@exp2)
   812  001ABC  0101               	movlb	1	; () banked
   813  001ABE  6F1D               	movwf	(1+(?___ftunpack+02h))&0ffh
   814  001AC0  0101               	movlb	1	; () banked
   815  001AC2  0E0B               	movlw	low(___ftdiv@f2)
   816  001AC4  0101               	movlb	1	; () banked
   817  001AC6  0101               	movlb	1	; () banked
   818  001AC8  6F1A               	movwf	((?___ftunpack))&0ffh
   819  001ACA  0101               	movlb	1	; () banked
   820  001ACC  0E01               	movlw	high(___ftdiv@f2)
   821  001ACE  0101               	movlb	1	; () banked
   822  001AD0  6F1B               	movwf	((?___ftunpack+1))&0ffh
   823  001AD2  EC2F  F011         	call	___ftunpack	;wreg free
   824  001AD6  0101               	movlb	1	; () banked
   825  001AD8  0101               	movlb	1	; () banked
   826  001ADA  6F11               	movwf	((___ftdiv@sign2))&0ffh
   827                           	line	28
   828  001ADC  0101               	movlb	1	; () banked
   829  001ADE  0101               	movlb	1	; () banked
   830  001AE0  670E               	tstfsz	((___ftdiv@exp2))&0ffh
   831  001AE2  D001               	goto	u2641
   832  001AE4  D001               	goto	u2640
   833  001AE6                     u2641:
   834  001AE6  D007               	goto	l407
   835  001AE8                     u2640:
   836                           	line	29
   837  001AE8  C112  F108         	movff	(___ftdiv@f3),(?___ftdiv)
   838  001AEC  C113  F109         	movff	(___ftdiv@f3+1),(?___ftdiv+1)
   839  001AF0  C114  F10A         	movff	(___ftdiv@f3+2),(?___ftdiv+2)
   840  001AF4  D072               	goto	l405
   841                           	
   842  001AF6                     l407:		; BSR set to: ?
   843                           
   844                           	line	30
   845  001AF6  0101               	movlb	1	; () banked
   846  001AF8  0101               	movlb	1	; () banked
   847  001AFA  510E               	movf	((___ftdiv@exp2))&0ffh,w
   848  001AFC  0F89               	addlw	low(089h)
   849  001AFE  0101               	movlb	1	; () banked
   850  001B00  0101               	movlb	1	; () banked
   851  001B02  5F10               	subwf	((___ftdiv@exp1))&0ffh
   852                           	line	31
   853  001B04  0101               	movlb	1	; () banked
   854  001B06  0101               	movlb	1	; () banked
   855  001B08  5111               	movf	((___ftdiv@sign2))&0ffh,w
   856  001B0A  0101               	movlb	1	; () banked
   857  001B0C  0101               	movlb	1	; () banked
   858  001B0E  1B0F               	xorwf	((___ftdiv@sign1))&0ffh
   859                           	line	32
   860  001B10  0101               	movlb	1	; () banked
   861  001B12  6F15               	movwf	(??___ftdiv+7+0)&0ffh
   862  001B14  0E18               	movlw	low(018h)
   863  001B16  0101               	movlb	1	; () banked
   864  001B18  0101               	movlb	1	; () banked
   865  001B1A  6F11               	movwf	((___ftdiv@sign2))&0ffh
   866  001B1C  0101               	movlb	1	; () banked
   867  001B1E  5115               	movf	(??___ftdiv+7+0)&0ffh,w
   868                           	line	33
   869                           	
   870  001B20                     l410:		; BSR set to: ?
   871                           
   872                           	line	34
   873  001B20  0101               	movlb	1	; () banked
   874  001B22  90D8               	bcf	status,0
   875  001B24  0101               	movlb	1	; () banked
   876  001B26  3712               	rlcf	((___ftdiv@f3))&0ffh
   877  001B28  0101               	movlb	1	; () banked
   878  001B2A  3713               	rlcf	((___ftdiv@f3+1))&0ffh
   879  001B2C  0101               	movlb	1	; () banked
   880  001B2E  3714               	rlcf	((___ftdiv@f3+2))&0ffh
   881                           	line	35
   882  001B30  0101               	movlb	1	; () banked
   883  001B32  0101               	movlb	1	; () banked
   884  001B34  510B               	movf	((___ftdiv@f2))&0ffh,w
   885  001B36  0101               	movlb	1	; () banked
   886  001B38  0101               	movlb	1	; () banked
   887  001B3A  5D08               	subwf	((___ftdiv@f1))&0ffh,w
   888  001B3C  0101               	movlb	1	; () banked
   889  001B3E  0101               	movlb	1	; () banked
   890  001B40  510C               	movf	((___ftdiv@f2+1))&0ffh,w
   891  001B42  0101               	movlb	1	; () banked
   892  001B44  0101               	movlb	1	; () banked
   893  001B46  5909               	subwfb	((___ftdiv@f1+1))&0ffh,w
   894  001B48  0101               	movlb	1	; () banked
   895  001B4A  0101               	movlb	1	; () banked
   896  001B4C  510D               	movf	((___ftdiv@f2+2))&0ffh,w
   897  001B4E  0101               	movlb	1	; () banked
   898  001B50  0101               	movlb	1	; () banked
   899  001B52  590A               	subwfb	((___ftdiv@f1+2))&0ffh,w
   900  001B54  A0D8               	btfss	status,0
   901  001B56  D001               	goto	u2651
   902  001B58  D001               	goto	u2650
   903  001B5A                     u2651:
   904  001B5A  D015               	goto	l411
   905  001B5C                     u2650:
   906                           	line	36
   907  001B5C  0101               	movlb	1	; () banked
   908  001B5E  0101               	movlb	1	; () banked
   909  001B60  510B               	movf	((___ftdiv@f2))&0ffh,w
   910  001B62  0101               	movlb	1	; () banked
   911  001B64  0101               	movlb	1	; () banked
   912  001B66  5F08               	subwf	((___ftdiv@f1))&0ffh
   913  001B68  0101               	movlb	1	; () banked
   914  001B6A  0101               	movlb	1	; () banked
   915  001B6C  510C               	movf	((___ftdiv@f2+1))&0ffh,w
   916  001B6E  0101               	movlb	1	; () banked
   917  001B70  0101               	movlb	1	; () banked
   918  001B72  5B09               	subwfb	((___ftdiv@f1+1))&0ffh
   919  001B74  0101               	movlb	1	; () banked
   920  001B76  0101               	movlb	1	; () banked
   921  001B78  510D               	movf	((___ftdiv@f2+2))&0ffh,w
   922  001B7A  0101               	movlb	1	; () banked
   923  001B7C  0101               	movlb	1	; () banked
   924  001B7E  5B0A               	subwfb	((___ftdiv@f1+2))&0ffh
   925                           
   926                           	line	37
   927  001B80  0101               	movlb	1	; () banked
   928  001B82  0101               	movlb	1	; () banked
   929  001B84  8112               	bsf	(0+(0/8)+(___ftdiv@f3))&0ffh,(0)&7
   930                           	line	38
   931                           	
   932  001B86                     l411:		; BSR set to: ?
   933                           
   934                           	line	39
   935  001B86  0101               	movlb	1	; () banked
   936  001B88  90D8               	bcf	status,0
   937  001B8A  0101               	movlb	1	; () banked
   938  001B8C  3708               	rlcf	((___ftdiv@f1))&0ffh
   939  001B8E  0101               	movlb	1	; () banked
   940  001B90  3709               	rlcf	((___ftdiv@f1+1))&0ffh
   941  001B92  0101               	movlb	1	; () banked
   942  001B94  370A               	rlcf	((___ftdiv@f1+2))&0ffh
   943                           	line	40
   944  001B96  0101               	movlb	1	; () banked
   945  001B98  0101               	movlb	1	; () banked
   946  001B9A  2F11               	decfsz	((___ftdiv@sign2))&0ffh
   947                           	
   948  001B9C  D7C1               	goto	l410
   949                           	
   950  001B9E                     l409:		; BSR set to: ?
   951                           
   952                           	line	41
   953  001B9E  C110  F11C         	movff	(___ftdiv@exp1),0+(?___ftpack+02h)
   954  001BA2  0101               	movlb	1	; () banked
   955  001BA4  0E12               	movlw	low(___ftdiv@f3)
   956  001BA6  0101               	movlb	1	; () banked
   957  001BA8  0101               	movlb	1	; () banked
   958  001BAA  6F1A               	movwf	((?___ftpack))&0ffh
   959  001BAC  0101               	movlb	1	; () banked
   960  001BAE  0E01               	movlw	high(___ftdiv@f3)
   961  001BB0  0101               	movlb	1	; () banked
   962  001BB2  6F1B               	movwf	((?___ftpack+1))&0ffh
   963  001BB4  EC18  F010         	call	___ftpack	;wreg free
   964                           	line	42
   965  001BB8  0101               	movlb	1	; () banked
   966  001BBA  0101               	movlb	1	; () banked
   967  001BBC  510F               	movf	((___ftdiv@sign1))&0ffh,w
   968  001BBE  B4D8               	btfsc	status,2
   969  001BC0  D001               	goto	u2661
   970  001BC2  D001               	goto	u2660
   971  001BC4                     u2661:
   972  001BC4  D003               	goto	l412
   973  001BC6                     u2660:
   974                           	line	43
   975  001BC6  0101               	movlb	1	; () banked
   976  001BC8  0101               	movlb	1	; () banked
   977  001BCA  8F14               	bsf	(0+(23/8)+(___ftdiv@f3))&0ffh,(23)&7
   978                           	
   979  001BCC                     l412:		; BSR set to: ?
   980                           
   981                           	line	44
   982  001BCC  C112  F108         	movff	(___ftdiv@f3),(?___ftdiv)
   983  001BD0  C113  F109         	movff	(___ftdiv@f3+1),(?___ftdiv+1)
   984  001BD4  C114  F10A         	movff	(___ftdiv@f3+2),(?___ftdiv+2)
   985  001BD8  D000               	goto	l405
   986                           	line	45
   987  001BDA                     l405:
   988                           			; BSR set to: ?
   989                           
   990  001BDA  0012               	return
   991                           	opt stack 0
   992                           GLOBAL __end_of___ftdiv
   993  001BDC                     	__end_of___ftdiv:
   994                           	FNSIZE	___ftdiv,8,6
   995                           ; =============== function ___ftdiv ends =======
                                 =====
   996                           
   997                           	signat	___ftdiv,8315
   998                           	global	___lwtoft
   999                           	global	??___lwtoft
  1000                           	global	?___lwtoft
  1001                                   psect   text2,class=CODE,space=0,reloc=2
  1002                           
  1003                           	opt lm
  1004                           	file	"C:\Program Files (x86)\HI-TECH Software\P
                                 ICC-18\PRO\9.63\sources\lwtoft.c"
  1005                           	line	16
  1006  000000                     	__size_of___lwtoft	equ	__end_of___lwtoft-___lwt
                                 oft
  1007                           	
  1008  00249C                     ___lwtoft:		; BSR set to: ?
  1009                           
  1010                           	opt stack 29
  1011                           	line	19
  1012  00249C  0101               	movlb	1	; () banked
  1013  00249E  0101               	movlb	1	; () banked
  1014  0024A0  5109               	movf	((___lwtoft@c+1))&0ffh,w
  1015  0024A2  1108               	iorwf ((___lwtoft@c))&0ffh,w
  1016                           
  1017  0024A4  A4D8               	btfss	status,2
  1018  0024A6  D001               	goto	u2671
  1019  0024A8  D001               	goto	u2670
  1020  0024AA                     u2671:
  1021  0024AA  D00D               	goto	l513
  1022  0024AC                     u2670:
  1023                           	line	20
  1024  0024AC  0E00               	movlw	low(float24(0.00000000000000000))
  1025  0024AE  0101               	movlb	1	; () banked
  1026  0024B0  0101               	movlb	1	; () banked
  1027  0024B2  6F08               	movwf	((?___lwtoft))&0ffh
  1028  0024B4  0E00               	movlw	high(float24(0.00000000000000000))
  1029  0024B6  0101               	movlb	1	; () banked
  1030  0024B8  0101               	movlb	1	; () banked
  1031  0024BA  6F09               	movwf	((?___lwtoft+1))&0ffh
  1032  0024BC  0E00               	movlw	low highword(float24(0.00000000000000000)
                                 )
  1033  0024BE  0101               	movlb	1	; () banked
  1034  0024C0  0101               	movlb	1	; () banked
  1035  0024C2  6F0A               	movwf	((?___lwtoft+2))&0ffh
  1036                           
  1037  0024C4  D025               	goto	l512
  1038                           	
  1039  0024C6                     l513:		; BSR set to: ?
  1040                           
  1041                           	line	21
  1042  0024C6  0101               	movlb	1	; () banked
  1043  0024C8  0101               	movlb	1	; () banked
  1044  0024CA  C108  F10B         	movff	(___lwtoft@c),(___lwtoft@f1)
  1045  0024CE  0101               	movlb	1	; () banked
  1046  0024D0  0101               	movlb	1	; () banked
  1047  0024D2  C109  F10C         	movff	(___lwtoft@c+1),(___lwtoft@f1+1)
  1048  0024D6  0101               	movlb	1	; () banked
  1049  0024D8  0101               	movlb	1	; () banked
  1050  0024DA  6B0D               	clrf	((___lwtoft@f1+2))&0ffh
  1051                           	line	22
  1052  0024DC  0101               	movlb	1	; () banked
  1053  0024DE  6F0E               	movwf	(??___lwtoft+3+0)&0ffh
  1054  0024E0  0E8E               	movlw	low(08Eh)
  1055  0024E2  0101               	movlb	1	; () banked
  1056  0024E4  0101               	movlb	1	; () banked
  1057  0024E6  6F1C               	movwf	(0+(?___ftpack+02h))&0ffh
  1058  0024E8  0101               	movlb	1	; () banked
  1059  0024EA  510E               	movf	(??___lwtoft+3+0)&0ffh,w
  1060  0024EC  0101               	movlb	1	; () banked
  1061  0024EE  0E0B               	movlw	low(___lwtoft@f1)
  1062  0024F0  0101               	movlb	1	; () banked
  1063  0024F2  0101               	movlb	1	; () banked
  1064  0024F4  6F1A               	movwf	((?___ftpack))&0ffh
  1065  0024F6  0101               	movlb	1	; () banked
  1066  0024F8  0E01               	movlw	high(___lwtoft@f1)
  1067  0024FA  0101               	movlb	1	; () banked
  1068  0024FC  6F1B               	movwf	((?___ftpack+1))&0ffh
  1069  0024FE  EC18  F010         	call	___ftpack	;wreg free
  1070                           	line	23
  1071  002502  C10B  F108         	movff	(___lwtoft@f1),(?___lwtoft)
  1072  002506  C10C  F109         	movff	(___lwtoft@f1+1),(?___lwtoft+1)
  1073  00250A  C10D  F10A         	movff	(___lwtoft@f1+2),(?___lwtoft+2)
  1074  00250E  D000               	goto	l512
  1075                           	line	24
  1076  002510                     l512:
  1077                           			; BSR set to: ?
  1078                           
  1079  002510  0012               	return
  1080                           	opt stack 0
  1081                           GLOBAL __end_of___lwtoft
  1082  002512                     	__end_of___lwtoft:
  1083                           	FNSIZE	___lwtoft,4,3
  1084                           ; =============== function ___lwtoft ends ======
                                 ======
  1085                           
  1086                           	signat	___lwtoft,4219
  1087                           	global	___ftmul
  1088                           	global	??___ftmul
  1089                           	global	?___ftmul
  1090                                   psect   text3,class=CODE,space=0,reloc=2
  1091                           
  1092                           	opt lm
  1093                           	file	"C:\Program Files (x86)\HI-TECH Software\P
                                 ICC-18\PRO\9.63\sources\ftmul.c"
  1094                           	line	18
  1095  000000                     	__size_of___ftmul	equ	__end_of___ftmul-___ftmul
  1096                           	
  1097  001896                     ___ftmul:		; BSR set to: ?
  1098                           
  1099                           	opt stack 29
  1100                           	line	22
  1101  001896  0E00               	movlw	low(0)
  1102  001898  0101               	movlb	1	; () banked
  1103  00189A  0101               	movlb	1	; () banked
  1104  00189C  6F11               	movwf	((___ftmul@f3))&0ffh
  1105  00189E  0E00               	movlw	high(0)
  1106  0018A0  0101               	movlb	1	; () banked
  1107  0018A2  0101               	movlb	1	; () banked
  1108  0018A4  6F12               	movwf	((___ftmul@f3+1))&0ffh
  1109  0018A6  0E00               	movlw	low highword(0)
  1110  0018A8  0101               	movlb	1	; () banked
  1111  0018AA  0101               	movlb	1	; () banked
  1112  0018AC  6F13               	movwf	((___ftmul@f3+2))&0ffh
  1113                           
  1114                           	line	23
  1115  0018AE  0101               	movlb	1	; () banked
  1116  0018B0  0E0F               	movlw	low(___ftmul@exp1)
  1117  0018B2  0101               	movlb	1	; () banked
  1118  0018B4  0101               	movlb	1	; () banked
  1119  0018B6  6F1C               	movwf	(0+(?___ftunpack+02h))&0ffh
  1120  0018B8  0101               	movlb	1	; () banked
  1121  0018BA  0E01               	movlw	high(___ftmul@exp1)
  1122  0018BC  0101               	movlb	1	; () banked
  1123  0018BE  6F1D               	movwf	(1+(?___ftunpack+02h))&0ffh
  1124  0018C0  0101               	movlb	1	; () banked
  1125  0018C2  0E08               	movlw	low(___ftmul@f1)
  1126  0018C4  0101               	movlb	1	; () banked
  1127  0018C6  0101               	movlb	1	; () banked
  1128  0018C8  6F1A               	movwf	((?___ftunpack))&0ffh
  1129  0018CA  0101               	movlb	1	; () banked
  1130  0018CC  0E01               	movlw	high(___ftmul@f1)
  1131  0018CE  0101               	movlb	1	; () banked
  1132  0018D0  6F1B               	movwf	((?___ftunpack+1))&0ffh
  1133  0018D2  EC2F  F011         	call	___ftunpack	;wreg free
  1134  0018D6  0101               	movlb	1	; () banked
  1135  0018D8  0101               	movlb	1	; () banked
  1136  0018DA  6F0E               	movwf	((___ftmul@sign1))&0ffh
  1137                           	line	24
  1138  0018DC  0101               	movlb	1	; () banked
  1139  0018DE  0E10               	movlw	low(___ftmul@cntr)
  1140  0018E0  0101               	movlb	1	; () banked
  1141  0018E2  0101               	movlb	1	; () banked
  1142  0018E4  6F1C               	movwf	(0+(?___ftunpack+02h))&0ffh
  1143  0018E6  0101               	movlb	1	; () banked
  1144  0018E8  0E01               	movlw	high(___ftmul@cntr)
  1145  0018EA  0101               	movlb	1	; () banked
  1146  0018EC  6F1D               	movwf	(1+(?___ftunpack+02h))&0ffh
  1147  0018EE  0101               	movlb	1	; () banked
  1148  0018F0  0E0B               	movlw	low(___ftmul@f2)
  1149  0018F2  0101               	movlb	1	; () banked
  1150  0018F4  0101               	movlb	1	; () banked
  1151  0018F6  6F1A               	movwf	((?___ftunpack))&0ffh
  1152  0018F8  0101               	movlb	1	; () banked
  1153  0018FA  0E01               	movlw	high(___ftmul@f2)
  1154  0018FC  0101               	movlb	1	; () banked
  1155  0018FE  6F1B               	movwf	((?___ftunpack+1))&0ffh
  1156  001900  EC2F  F011         	call	___ftunpack	;wreg free
  1157  001904  0101               	movlb	1	; () banked
  1158  001906  0101               	movlb	1	; () banked
  1159  001908  1B0E               	xorwf	((___ftmul@sign1))&0ffh
  1160                           	line	25
  1161  00190A  0101               	movlb	1	; () banked
  1162  00190C  0101               	movlb	1	; () banked
  1163  00190E  5110               	movf	((___ftmul@cntr))&0ffh,w
  1164  001910  B4D8               	btfsc	status,2
  1165  001912  D001               	goto	u2681
  1166  001914  D001               	goto	u2680
  1167  001916                     u2681:
  1168  001916  D006               	goto	l600000273
  1169  001918                     u2680:
  1170  001918  0101               	movlb	1	; () banked
  1171  00191A  0101               	movlb	1	; () banked
  1172  00191C  670F               	tstfsz	((___ftmul@exp1))&0ffh
  1173  00191E  D001               	goto	u2691
  1174  001920  D001               	goto	u2690
  1175  001922                     u2691:
  1176  001922  D007               	goto	l415
  1177  001924                     u2690:
  1178                           	
  1179  001924                     l600000273:		; BSR set to: ?
  1180                           
  1181                           	line	26
  1182  001924  C111  F108         	movff	(___ftmul@f3),(?___ftmul)
  1183  001928  C112  F109         	movff	(___ftmul@f3+1),(?___ftmul+1)
  1184  00192C  C113  F10A         	movff	(___ftmul@f3+2),(?___ftmul+2)
  1185  001930  D08D               	goto	l414
  1186                           	
  1187  001932                     l415:		; BSR set to: ?
  1188                           
  1189                           	line	27
  1190  001932  0101               	movlb	1	; () banked
  1191  001934  0101               	movlb	1	; () banked
  1192  001936  5110               	movf	((___ftmul@cntr))&0ffh,w
  1193  001938  0F7B               	addlw	low(07Bh)
  1194  00193A  0101               	movlb	1	; () banked
  1195  00193C  0101               	movlb	1	; () banked
  1196  00193E  270F               	addwf	((___ftmul@exp1))&0ffh
  1197                           	line	28
  1198  001940  0101               	movlb	1	; () banked
  1199  001942  6F14               	movwf	(??___ftmul+6+0)&0ffh
  1200  001944  0E07               	movlw	low(07h)
  1201  001946  0101               	movlb	1	; () banked
  1202  001948  0101               	movlb	1	; () banked
  1203  00194A  6F10               	movwf	((___ftmul@cntr))&0ffh
  1204  00194C  0101               	movlb	1	; () banked
  1205  00194E  5114               	movf	(??___ftmul+6+0)&0ffh,w
  1206                           	line	29
  1207                           	
  1208  001950                     l418:		; BSR set to: ?
  1209                           
  1210                           	line	30
  1211  001950  0101               	movlb	1	; () banked
  1212                           	
  1213  001952  0101               	movlb	1	; () banked
  1214  001954  A108               	btfss	((___ftmul@f1))&0ffh,(0)&7
  1215  001956  D001               	goto	u2701
  1216  001958  D001               	goto	u2700
  1217  00195A                     u2701:
  1218  00195A  D012               	goto	l419
  1219  00195C                     u2700:
  1220                           	line	31
  1221  00195C  0101               	movlb	1	; () banked
  1222  00195E  0101               	movlb	1	; () banked
  1223  001960  510B               	movf	((___ftmul@f2))&0ffh,w
  1224  001962  0101               	movlb	1	; () banked
  1225  001964  0101               	movlb	1	; () banked
  1226  001966  2711               	addwf	((___ftmul@f3))&0ffh
  1227  001968  0101               	movlb	1	; () banked
  1228  00196A  0101               	movlb	1	; () banked
  1229  00196C  510C               	movf	((___ftmul@f2+1))&0ffh,w
  1230  00196E  0101               	movlb	1	; () banked
  1231  001970  0101               	movlb	1	; () banked
  1232  001972  2312               	addwfc	((___ftmul@f3+1))&0ffh
  1233  001974  0101               	movlb	1	; () banked
  1234  001976  0101               	movlb	1	; () banked
  1235  001978  510D               	movf	((___ftmul@f2+2))&0ffh,w
  1236  00197A  0101               	movlb	1	; () banked
  1237  00197C  0101               	movlb	1	; () banked
  1238  00197E  2313               	addwfc	((___ftmul@f3+2))&0ffh
  1239                           
  1240                           	
  1241  001980                     l419:		; BSR set to: ?
  1242                           
  1243                           	line	32
  1244  001980  0101               	movlb	1	; () banked
  1245  001982  90D8               	bcf	status,0
  1246  001984  0101               	movlb	1	; () banked
  1247  001986  330A               	rrcf	((___ftmul@f1+2))&0ffh
  1248  001988  0101               	movlb	1	; () banked
  1249  00198A  3309               	rrcf	((___ftmul@f1+1))&0ffh
  1250  00198C  0101               	movlb	1	; () banked
  1251  00198E  3308               	rrcf	((___ftmul@f1))&0ffh
  1252                           	line	33
  1253  001990  0101               	movlb	1	; () banked
  1254  001992  90D8               	bcf	status,0
  1255  001994  0101               	movlb	1	; () banked
  1256  001996  370B               	rlcf	((___ftmul@f2))&0ffh
  1257  001998  0101               	movlb	1	; () banked
  1258  00199A  370C               	rlcf	((___ftmul@f2+1))&0ffh
  1259  00199C  0101               	movlb	1	; () banked
  1260  00199E  370D               	rlcf	((___ftmul@f2+2))&0ffh
  1261                           	line	34
  1262  0019A0  0101               	movlb	1	; () banked
  1263  0019A2  0101               	movlb	1	; () banked
  1264  0019A4  2F10               	decfsz	((___ftmul@cntr))&0ffh
  1265                           	
  1266  0019A6  D7D4               	goto	l418
  1267                           	
  1268  0019A8                     l417:		; BSR set to: ?
  1269                           
  1270                           	line	35
  1271  0019A8  0101               	movlb	1	; () banked
  1272  0019AA  6F14               	movwf	(??___ftmul+6+0)&0ffh
  1273  0019AC  0E09               	movlw	low(09h)
  1274  0019AE  0101               	movlb	1	; () banked
  1275  0019B0  0101               	movlb	1	; () banked
  1276  0019B2  6F10               	movwf	((___ftmul@cntr))&0ffh
  1277  0019B4  0101               	movlb	1	; () banked
  1278  0019B6  5114               	movf	(??___ftmul+6+0)&0ffh,w
  1279                           	line	36
  1280                           	
  1281  0019B8                     l422:		; BSR set to: ?
  1282                           
  1283                           	line	37
  1284  0019B8  0101               	movlb	1	; () banked
  1285                           	
  1286  0019BA  0101               	movlb	1	; () banked
  1287  0019BC  A108               	btfss	((___ftmul@f1))&0ffh,(0)&7
  1288  0019BE  D001               	goto	u2711
  1289  0019C0  D001               	goto	u2710
  1290  0019C2                     u2711:
  1291  0019C2  D012               	goto	l423
  1292  0019C4                     u2710:
  1293                           	line	38
  1294  0019C4  0101               	movlb	1	; () banked
  1295  0019C6  0101               	movlb	1	; () banked
  1296  0019C8  510B               	movf	((___ftmul@f2))&0ffh,w
  1297  0019CA  0101               	movlb	1	; () banked
  1298  0019CC  0101               	movlb	1	; () banked
  1299  0019CE  2711               	addwf	((___ftmul@f3))&0ffh
  1300  0019D0  0101               	movlb	1	; () banked
  1301  0019D2  0101               	movlb	1	; () banked
  1302  0019D4  510C               	movf	((___ftmul@f2+1))&0ffh,w
  1303  0019D6  0101               	movlb	1	; () banked
  1304  0019D8  0101               	movlb	1	; () banked
  1305  0019DA  2312               	addwfc	((___ftmul@f3+1))&0ffh
  1306  0019DC  0101               	movlb	1	; () banked
  1307  0019DE  0101               	movlb	1	; () banked
  1308  0019E0  510D               	movf	((___ftmul@f2+2))&0ffh,w
  1309  0019E2  0101               	movlb	1	; () banked
  1310  0019E4  0101               	movlb	1	; () banked
  1311  0019E6  2313               	addwfc	((___ftmul@f3+2))&0ffh
  1312                           
  1313                           	
  1314  0019E8                     l423:		; BSR set to: ?
  1315                           
  1316                           	line	39
  1317  0019E8  0101               	movlb	1	; () banked
  1318  0019EA  90D8               	bcf	status,0
  1319  0019EC  0101               	movlb	1	; () banked
  1320  0019EE  330A               	rrcf	((___ftmul@f1+2))&0ffh
  1321  0019F0  0101               	movlb	1	; () banked
  1322  0019F2  3309               	rrcf	((___ftmul@f1+1))&0ffh
  1323  0019F4  0101               	movlb	1	; () banked
  1324  0019F6  3308               	rrcf	((___ftmul@f1))&0ffh
  1325                           	line	40
  1326  0019F8  0101               	movlb	1	; () banked
  1327  0019FA  90D8               	bcf	status,0
  1328  0019FC  0101               	movlb	1	; () banked
  1329  0019FE  3313               	rrcf	((___ftmul@f3+2))&0ffh
  1330  001A00  0101               	movlb	1	; () banked
  1331  001A02  3312               	rrcf	((___ftmul@f3+1))&0ffh
  1332  001A04  0101               	movlb	1	; () banked
  1333  001A06  3311               	rrcf	((___ftmul@f3))&0ffh
  1334                           	line	41
  1335  001A08  0101               	movlb	1	; () banked
  1336  001A0A  0101               	movlb	1	; () banked
  1337  001A0C  2F10               	decfsz	((___ftmul@cntr))&0ffh
  1338                           	
  1339  001A0E  D7D4               	goto	l422
  1340                           	
  1341  001A10                     l421:		; BSR set to: ?
  1342                           
  1343                           	line	42
  1344  001A10  C10F  F11C         	movff	(___ftmul@exp1),0+(?___ftpack+02h)
  1345  001A14  0101               	movlb	1	; () banked
  1346  001A16  0E11               	movlw	low(___ftmul@f3)
  1347  001A18  0101               	movlb	1	; () banked
  1348  001A1A  0101               	movlb	1	; () banked
  1349  001A1C  6F1A               	movwf	((?___ftpack))&0ffh
  1350  001A1E  0101               	movlb	1	; () banked
  1351  001A20  0E01               	movlw	high(___ftmul@f3)
  1352  001A22  0101               	movlb	1	; () banked
  1353  001A24  6F1B               	movwf	((?___ftpack+1))&0ffh
  1354  001A26  EC18  F010         	call	___ftpack	;wreg free
  1355                           	line	43
  1356  001A2A  0101               	movlb	1	; () banked
  1357  001A2C  0101               	movlb	1	; () banked
  1358  001A2E  510E               	movf	((___ftmul@sign1))&0ffh,w
  1359  001A30  B4D8               	btfsc	status,2
  1360  001A32  D001               	goto	u2721
  1361  001A34  D001               	goto	u2720
  1362  001A36                     u2721:
  1363  001A36  D003               	goto	l424
  1364  001A38                     u2720:
  1365                           	line	44
  1366  001A38  0101               	movlb	1	; () banked
  1367  001A3A  0101               	movlb	1	; () banked
  1368  001A3C  8F13               	bsf	(0+(23/8)+(___ftmul@f3))&0ffh,(23)&7
  1369                           	
  1370  001A3E                     l424:		; BSR set to: ?
  1371                           
  1372                           	line	45
  1373  001A3E  C111  F108         	movff	(___ftmul@f3),(?___ftmul)
  1374  001A42  C112  F109         	movff	(___ftmul@f3+1),(?___ftmul+1)
  1375  001A46  C113  F10A         	movff	(___ftmul@f3+2),(?___ftmul+2)
  1376  001A4A  D000               	goto	l414
  1377                           	line	46
  1378  001A4C                     l414:
  1379                           			; BSR set to: ?
  1380                           
  1381  001A4C  0012               	return
  1382                           	opt stack 0
  1383                           GLOBAL __end_of___ftmul
  1384  001A4E                     	__end_of___ftmul:
  1385                           	FNSIZE	___ftmul,7,6
  1386                           ; =============== function ___ftmul ends =======
                                 =====
  1387                           
  1388                           	signat	___ftmul,8315
  1389                           	global	___ftsub
  1390                           	global	??___ftsub
  1391                           	global	?___ftsub
  1392                                   psect   text4,class=CODE,space=0,reloc=2
  1393                           
  1394                           	opt lm
  1395                           	file	"C:\Program Files (x86)\HI-TECH Software\P
                                 ICC-18\PRO\9.63\sources\ftsub.c"
  1396                           	line	17
  1397  000000                     	__size_of___ftsub	equ	__end_of___ftsub-___ftsub
  1398                           	
  1399  002560                     ___ftsub:		; BSR set to: ?
  1400                           
  1401                           	opt stack 29
  1402                           	line	18
  1403  002560  0E00               	movlw	low(0800000h)
  1404  002562  0101               	movlb	1	; () banked
  1405  002564  0101               	movlb	1	; () banked
  1406  002566  1B0B               	xorwf	((___ftsub@f2))&0ffh
  1407  002568  0E00               	movlw	high(0800000h)
  1408  00256A  0101               	movlb	1	; () banked
  1409  00256C  0101               	movlb	1	; () banked
  1410  00256E  1B0C               	xorwf	((___ftsub@f2+1))&0ffh
  1411  002570  0E80               	movlw	low highword(0800000h)
  1412  002572  0101               	movlb	1	; () banked
  1413  002574  0101               	movlb	1	; () banked
  1414  002576  1B0D               	xorwf	((___ftsub@f2+2))&0ffh
  1415                           
  1416                           	line	19
  1417  002578  C10B  F111         	movff	(___ftsub@f2),0+(?___ftadd+03h)
  1418  00257C  C10C  F112         	movff	(___ftsub@f2+1),1+(?___ftadd+03h)
  1419  002580  C10D  F113         	movff	(___ftsub@f2+2),2+(?___ftadd+03h)
  1420  002584  C108  F10E         	movff	(___ftsub@f1),(?___ftadd)
  1421  002588  C109  F10F         	movff	(___ftsub@f1+1),(?___ftadd+1)
  1422  00258C  C10A  F110         	movff	(___ftsub@f1+2),(?___ftadd+2)
  1423  002590  ECCC  F009         	call	___ftadd	;wreg free
  1424  002594  C10E  F108         	movff	0+?___ftadd,(?___ftsub)
  1425  002598  C10F  F109         	movff	1+?___ftadd,(?___ftsub+1)
  1426  00259C  C110  F10A         	movff	2+?___ftadd,(?___ftsub+2)
  1427  0025A0  D000               	goto	l426
  1428                           	line	20
  1429  0025A2                     l426:
  1430                           			; BSR set to: ?
  1431                           
  1432  0025A2  0012               	return
  1433                           	opt stack 0
  1434                           GLOBAL __end_of___ftsub
  1435  0025A4                     	__end_of___ftsub:
  1436                           	FNSIZE	___ftsub,0,6
  1437                           ; =============== function ___ftsub ends =======
                                 =====
  1438                           
  1439                           	signat	___ftsub,8315
  1440                           	global	___fttol
  1441                           	global	??___fttol
  1442                           	global	?___fttol
  1443                                   psect   text5,class=CODE,space=0,reloc=2
  1444                           
  1445                           	opt lm
  1446                           	file	"C:\Program Files (x86)\HI-TECH Software\P
                                 ICC-18\PRO\9.63\sources\fttol.c"
  1447                           	line	16
  1448  000000                     	__size_of___fttol	equ	__end_of___fttol-___fttol
  1449                           	
  1450  001EEC                     ___fttol:		; BSR set to: ?
  1451                           
  1452                           	opt stack 29
  1453                           	line	20
  1454  001EEC  0101               	movlb	1	; () banked
  1455  001EEE  0E0D               	movlw	low(___fttol@exp1)
  1456  001EF0  0101               	movlb	1	; () banked
  1457  001EF2  0101               	movlb	1	; () banked
  1458  001EF4  6F1C               	movwf	(0+(?___ftunpack+02h))&0ffh
  1459  001EF6  0101               	movlb	1	; () banked
  1460  001EF8  0E01               	movlw	high(___fttol@exp1)
  1461  001EFA  0101               	movlb	1	; () banked
  1462  001EFC  6F1D               	movwf	(1+(?___ftunpack+02h))&0ffh
  1463  001EFE  0101               	movlb	1	; () banked
  1464  001F00  0E08               	movlw	low(___fttol@f1)
  1465  001F02  0101               	movlb	1	; () banked
  1466  001F04  0101               	movlb	1	; () banked
  1467  001F06  6F1A               	movwf	((?___ftunpack))&0ffh
  1468  001F08  0101               	movlb	1	; () banked
  1469  001F0A  0E01               	movlw	high(___fttol@f1)
  1470  001F0C  0101               	movlb	1	; () banked
  1471  001F0E  6F1B               	movwf	((?___ftunpack+1))&0ffh
  1472  001F10  EC2F  F011         	call	___ftunpack	;wreg free
  1473  001F14  0101               	movlb	1	; () banked
  1474  001F16  0101               	movlb	1	; () banked
  1475  001F18  6F0C               	movwf	((___fttol@sign1))&0ffh
  1476                           	line	21
  1477  001F1A  0101               	movlb	1	; () banked
  1478  001F1C  0101               	movlb	1	; () banked
  1479  001F1E  5108               	movf	((___fttol@f1))&0ffh,w
  1480  001F20  0101               	movlb	1	; () banked
  1481  001F22  0101               	movlb	1	; () banked
  1482  001F24  6F0E               	movwf	((___fttol@lval))&0ffh
  1483  001F26  0101               	movlb	1	; () banked
  1484  001F28  0101               	movlb	1	; () banked
  1485  001F2A  5109               	movf	((___fttol@f1+1))&0ffh,w
  1486  001F2C  0101               	movlb	1	; () banked
  1487  001F2E  6F0F               	movwf	1+((___fttol@lval))&0ffh
  1488                           	
  1489  001F30  0101               	movlb	1	; () banked
  1490  001F32  510A               	movf	((___fttol@f1+2))&0ffh,w
  1491  001F34  0101               	movlb	1	; () banked
  1492  001F36  6F10               	movwf	2+((___fttol@lval))&0ffh
  1493                           	
  1494  001F38  0101               	movlb	1	; () banked
  1495  001F3A  6B11               	clrf	3+((___fttol@lval))&0ffh
  1496                           	line	22
  1497  001F3C  0E8E               	movlw	(08Eh)&0ffh
  1498  001F3E  0101               	movlb	1	; () banked
  1499  001F40  0101               	movlb	1	; () banked
  1500  001F42  5F0D               	subwf	((___fttol@exp1))&0ffh
  1501                           	line	23
  1502  001F44  0101               	movlb	1	; () banked
  1503  001F46  0101               	movlb	1	; () banked
  1504  001F48  AF0D               	btfss	((___fttol@exp1))&0ffh,7
  1505  001F4A  D001               	goto	u2731
  1506  001F4C  D001               	goto	u2730
  1507  001F4E                     u2731:
  1508  001F4E  D026               	goto	l429
  1509  001F50                     u2730:
  1510                           	line	24
  1511  001F50  0101               	movlb	1	; () banked
  1512  001F52  0101               	movlb	1	; () banked
  1513  001F54  510D               	movf	((___fttol@exp1))&0ffh,w
  1514  001F56  0A80               	xorlw	80h
  1515  001F58  0F8F               	addlw	-((-15)^80h)
  1516  001F5A  B0D8               	btfsc	status,0
  1517  001F5C  D001               	goto	u2741
  1518  001F5E  D001               	goto	u2740
  1519  001F60                     u2741:
  1520  001F60  D00E               	goto	l433
  1521  001F62                     u2740:
  1522                           	line	25
  1523  001F62  0E00               	movlw	low(0)
  1524  001F64  0101               	movlb	1	; () banked
  1525  001F66  0101               	movlb	1	; () banked
  1526  001F68  6F08               	movwf	((?___fttol))&0ffh
  1527  001F6A  0E00               	movlw	high(0)
  1528  001F6C  0101               	movlb	1	; () banked
  1529  001F6E  6F09               	movwf	((?___fttol+1))&0ffh
  1530  001F70  0E00               	movlw	low highword(0)
  1531  001F72  0101               	movlb	1	; () banked
  1532  001F74  6F0A               	movwf	((?___fttol+2))&0ffh
  1533  001F76  0E00               	movlw	high highword(0)
  1534  001F78  0101               	movlb	1	; () banked
  1535  001F7A  6F0B               	movwf	((?___fttol+3))&0ffh
  1536  001F7C  D058               	goto	l428
  1537                           	line	26
  1538                           	
  1539  001F7E                     l433:		; BSR set to: ?
  1540                           
  1541                           	line	27
  1542  001F7E  0101               	movlb	1	; () banked
  1543  001F80  90D8               	bcf	status,0
  1544  001F82  0101               	movlb	1	; () banked
  1545  001F84  3311               	rrcf	((___fttol@lval+3))&0ffh
  1546  001F86  0101               	movlb	1	; () banked
  1547  001F88  3310               	rrcf	((___fttol@lval+2))&0ffh
  1548  001F8A  0101               	movlb	1	; () banked
  1549  001F8C  330F               	rrcf	((___fttol@lval+1))&0ffh
  1550  001F8E  0101               	movlb	1	; () banked
  1551  001F90  330E               	rrcf	((___fttol@lval))&0ffh
  1552                           	line	28
  1553  001F92  0101               	movlb	1	; () banked
  1554  001F94  0101               	movlb	1	; () banked
  1555  001F96  3F0D               	incfsz	((___fttol@exp1))&0ffh
  1556                           	
  1557  001F98  D7F2               	goto	l433
  1558                           	
  1559  001F9A                     l432:		; BSR set to: ?
  1560                           
  1561                           	line	29
  1562  001F9A  D029               	goto	l434
  1563                           	
  1564  001F9C                     l429:		; BSR set to: ?
  1565                           
  1566                           	line	30
  1567  001F9C  0E1F               	movlw	(020h-1)
  1568  001F9E  0101               	movlb	1	; () banked
  1569  001FA0  0101               	movlb	1	; () banked
  1570  001FA2  650D               	cpfsgt	((___fttol@exp1))&0ffh
  1571  001FA4  D001               	goto	u2751
  1572  001FA6  D001               	goto	u2750
  1573  001FA8                     u2751:
  1574  001FA8  D00E               	goto	l435
  1575  001FAA                     u2750:
  1576                           	line	31
  1577  001FAA  0E00               	movlw	low(0)
  1578  001FAC  0101               	movlb	1	; () banked
  1579  001FAE  0101               	movlb	1	; () banked
  1580  001FB0  6F08               	movwf	((?___fttol))&0ffh
  1581  001FB2  0E00               	movlw	high(0)
  1582  001FB4  0101               	movlb	1	; () banked
  1583  001FB6  6F09               	movwf	((?___fttol+1))&0ffh
  1584  001FB8  0E00               	movlw	low highword(0)
  1585  001FBA  0101               	movlb	1	; () banked
  1586  001FBC  6F0A               	movwf	((?___fttol+2))&0ffh
  1587  001FBE  0E00               	movlw	high highword(0)
  1588  001FC0  0101               	movlb	1	; () banked
  1589  001FC2  6F0B               	movwf	((?___fttol+3))&0ffh
  1590  001FC4  D034               	goto	l428
  1591                           	
  1592  001FC6                     l435:		; BSR set to: ?
  1593                           
  1594                           	line	32
  1595  001FC6  D00D               	goto	l436
  1596                           	
  1597  001FC8                     l437:		; BSR set to: ?
  1598                           
  1599                           	line	33
  1600  001FC8  0101               	movlb	1	; () banked
  1601  001FCA  90D8               	bcf	status,0
  1602  001FCC  0101               	movlb	1	; () banked
  1603  001FCE  370E               	rlcf	((___fttol@lval))&0ffh
  1604  001FD0  0101               	movlb	1	; () banked
  1605  001FD2  370F               	rlcf	((___fttol@lval+1))&0ffh
  1606  001FD4  0101               	movlb	1	; () banked
  1607  001FD6  3710               	rlcf	((___fttol@lval+2))&0ffh
  1608  001FD8  0101               	movlb	1	; () banked
  1609  001FDA  3711               	rlcf	((___fttol@lval+3))&0ffh
  1610                           	line	34
  1611  001FDC  0101               	movlb	1	; () banked
  1612  001FDE  0101               	movlb	1	; () banked
  1613  001FE0  070D               	decf	((___fttol@exp1))&0ffh
  1614                           	line	35
  1615                           	
  1616  001FE2                     l436:		; BSR set to: ?
  1617                           
  1618                           	line	32
  1619  001FE2  0101               	movlb	1	; () banked
  1620  001FE4  0101               	movlb	1	; () banked
  1621  001FE6  670D               	tstfsz	((___fttol@exp1))&0ffh
  1622  001FE8  D001               	goto	u2761
  1623  001FEA  D001               	goto	u2760
  1624  001FEC                     u2761:
  1625  001FEC  D7ED               	goto	l437
  1626  001FEE                     u2760:
  1627                           	
  1628  001FEE                     l438:		; BSR set to: ?
  1629                           
  1630                           	line	36
  1631                           	
  1632  001FEE                     l434:		; BSR set to: ?
  1633                           
  1634                           	line	37
  1635  001FEE  0101               	movlb	1	; () banked
  1636  001FF0  0101               	movlb	1	; () banked
  1637  001FF2  510C               	movf	((___fttol@sign1))&0ffh,w
  1638  001FF4  B4D8               	btfsc	status,2
  1639  001FF6  D001               	goto	u2771
  1640  001FF8  D001               	goto	u2770
  1641  001FFA                     u2771:
  1642  001FFA  D010               	goto	l439
  1643  001FFC                     u2770:
  1644                           	line	38
  1645  001FFC  0101               	movlb	1	; () banked
  1646  001FFE  0101               	movlb	1	; () banked
  1647  002000  1F11               	comf	((___fttol@lval+3))&0ffh
  1648  002002  0101               	movlb	1	; () banked
  1649  002004  1F10               	comf	((___fttol@lval+2))&0ffh
  1650  002006  0101               	movlb	1	; () banked
  1651  002008  1F0F               	comf	((___fttol@lval+1))&0ffh
  1652  00200A  0101               	movlb	1	; () banked
  1653  00200C  6D0E               	negf	((___fttol@lval))&0ffh
  1654  00200E  0E00               	movlw	0
  1655  002010  0101               	movlb	1	; () banked
  1656  002012  230F               	addwfc	((___fttol@lval+1))&0ffh
  1657  002014  0101               	movlb	1	; () banked
  1658  002016  2310               	addwfc	((___fttol@lval+2))&0ffh
  1659  002018  0101               	movlb	1	; () banked
  1660  00201A  2311               	addwfc	((___fttol@lval+3))&0ffh
  1661                           	
  1662  00201C                     l439:		; BSR set to: ?
  1663                           
  1664                           	line	39
  1665  00201C  C10E  F108         	movff	(___fttol@lval),(?___fttol)
  1666  002020  C10F  F109         	movff	(___fttol@lval+1),(?___fttol+1)
  1667  002024  C110  F10A         	movff	(___fttol@lval+2),(?___fttol+2)
  1668  002028  C111  F10B         	movff	(___fttol@lval+3),(?___fttol+3)
  1669  00202C  D000               	goto	l428
  1670                           	line	40
  1671  00202E                     l428:
  1672                           			; BSR set to: ?
  1673                           
  1674  00202E  0012               	return
  1675                           	opt stack 0
  1676                           GLOBAL __end_of___fttol
  1677  002030                     	__end_of___fttol:
  1678                           	FNSIZE	___fttol,6,4
  1679                           ; =============== function ___fttol ends =======
                                 =====
  1680                           
  1681                           	signat	___fttol,4220
  1682                           	global	_LCD_Move
  1683                           	global	??_LCD_Move
  1684                           	global	?_LCD_Move
  1685                                   psect   text6,class=CODE,space=0,reloc=2
  1686                           
  1687                           	opt lm
  1688                           	file	"A:\OneDrive\School\College\Junior\Fa23\Em
                                 b Sys\c\hw10\timer1compare\lcd_portd.c"
  1689                           	line	54
  1690  000000                     	__size_of_LCD_Move	equ	__end_of_LCD_Move-_LCD_M
                                 ove
  1691                           ;lcd_portd.c: 53: void LCD_Move(unsigned char Ro
                                 w, unsigned char Col)
  1692                           ;lcd_portd.c: 54: {
  1693                           	
  1694  00239A                     _LCD_Move:		; BSR set to: ?
  1695                           
  1696                           	opt stack 29
  1697                           	line	55
  1698  00239A  0101               	movlb	1	; () banked
  1699  00239C  0101               	movlb	1	; () banked
  1700  00239E  6708               	tstfsz	((LCD_Move@Row))&0ffh
  1701  0023A0  D001               	goto	u2781
  1702  0023A2  D001               	goto	u2780
  1703  0023A4                     u2781:
  1704  0023A4  D009               	goto	l131
  1705  0023A6                     u2780:
  1706  0023A6  0101               	movlb	1	; () banked
  1707  0023A8  0101               	movlb	1	; () banked
  1708  0023AA  5109               	movf	((LCD_Move@Col))&0ffh,w
  1709  0023AC  0F80               	addlw	low(080h)
  1710  0023AE  0101               	movlb	1	; () banked
  1711  0023B0  0101               	movlb	1	; () banked
  1712  0023B2  6F0A               	movwf	((?_LCD_Inst))&0ffh
  1713  0023B4  EC89  F012         	call	_LCD_Inst	;wreg free
  1714                           	
  1715  0023B8                     l131:		; BSR set to: ?
  1716                           
  1717                           	line	56
  1718                           ;lcd_portd.c: 56: if (Row == 1) LCD_Inst(0xC0 + 
                                 Col);
  1719  0023B8  0101               	movlb	1	; () banked
  1720  0023BA  0101               	movlb	1	; () banked
  1721  0023BC  0508               	decf	((LCD_Move@Row))&0ffh,w
  1722                           
  1723  0023BE  A4D8               	btfss	status,2
  1724  0023C0  D001               	goto	u2791
  1725  0023C2  D001               	goto	u2790
  1726  0023C4                     u2791:
  1727  0023C4  D009               	goto	l132
  1728  0023C6                     u2790:
  1729  0023C6  0101               	movlb	1	; () banked
  1730  0023C8  0101               	movlb	1	; () banked
  1731  0023CA  5109               	movf	((LCD_Move@Col))&0ffh,w
  1732  0023CC  0FC0               	addlw	low(0C0h)
  1733  0023CE  0101               	movlb	1	; () banked
  1734  0023D0  0101               	movlb	1	; () banked
  1735  0023D2  6F0A               	movwf	((?_LCD_Inst))&0ffh
  1736  0023D4  EC89  F012         	call	_LCD_Inst	;wreg free
  1737                           	
  1738  0023D8                     l132:		; BSR set to: ?
  1739                           
  1740                           	line	57
  1741                           ;lcd_portd.c: 57: if (Row == 2) LCD_Inst(0x94 + 
                                 Col);
  1742  0023D8  0101               	movlb	1	; () banked
  1743  0023DA  0101               	movlb	1	; () banked
  1744  0023DC  5108               	movf	((LCD_Move@Row))&0ffh,w
  1745  0023DE  0A02               	xorlw	2
  1746                           
  1747  0023E0  A4D8               	btfss	status,2
  1748  0023E2  D001               	goto	u2801
  1749  0023E4  D001               	goto	u2800
  1750  0023E6                     u2801:
  1751  0023E6  D009               	goto	l133
  1752  0023E8                     u2800:
  1753  0023E8  0101               	movlb	1	; () banked
  1754  0023EA  0101               	movlb	1	; () banked
  1755  0023EC  5109               	movf	((LCD_Move@Col))&0ffh,w
  1756  0023EE  0F94               	addlw	low(094h)
  1757  0023F0  0101               	movlb	1	; () banked
  1758  0023F2  0101               	movlb	1	; () banked
  1759  0023F4  6F0A               	movwf	((?_LCD_Inst))&0ffh
  1760  0023F6  EC89  F012         	call	_LCD_Inst	;wreg free
  1761                           	
  1762  0023FA                     l133:		; BSR set to: ?
  1763                           
  1764                           	line	58
  1765                           ;lcd_portd.c: 58: if (Row == 3) LCD_Inst(0xD4 + 
                                 Col);
  1766  0023FA  0101               	movlb	1	; () banked
  1767  0023FC  0101               	movlb	1	; () banked
  1768  0023FE  5108               	movf	((LCD_Move@Row))&0ffh,w
  1769  002400  0A03               	xorlw	3
  1770                           
  1771  002402  A4D8               	btfss	status,2
  1772  002404  D001               	goto	u2811
  1773  002406  D001               	goto	u2810
  1774  002408                     u2811:
  1775  002408  D009               	goto	l134
  1776  00240A                     u2810:
  1777  00240A  0101               	movlb	1	; () banked
  1778  00240C  0101               	movlb	1	; () banked
  1779  00240E  5109               	movf	((LCD_Move@Col))&0ffh,w
  1780  002410  0FD4               	addlw	low(0D4h)
  1781  002412  0101               	movlb	1	; () banked
  1782  002414  0101               	movlb	1	; () banked
  1783  002416  6F0A               	movwf	((?_LCD_Inst))&0ffh
  1784  002418  EC89  F012         	call	_LCD_Inst	;wreg free
  1785                           	
  1786  00241C                     l134:		; BSR set to: ?
  1787                           
  1788                           	line	59
  1789                           ;lcd_portd.c: 59: }
  1790  00241C                     l130:
  1791                           			; BSR set to: ?
  1792                           
  1793  00241C  0012               	return
  1794                           	opt stack 0
  1795                           GLOBAL __end_of_LCD_Move
  1796  00241E                     	__end_of_LCD_Move:
  1797                           	FNSIZE	_LCD_Move,0,2
  1798                           ; =============== function _LCD_Move ends ======
                                 ======
  1799                           
  1800                           	signat	_LCD_Move,8312
  1801                           	global	_LCD_Out
  1802                           	global	??_LCD_Out
  1803                           	global	?_LCD_Out
  1804                                   psect   text7,class=CODE,space=0,reloc=2
  1805                           
  1806                           	opt lm
  1807                           	file	"A:\OneDrive\School\College\Junior\Fa23\Em
                                 b Sys\c\hw10\timer1compare\lcd_portd.c"
  1808                           	line	87
  1809  000000                     	__size_of_LCD_Out	equ	__end_of_LCD_Out-_LCD_Out
  1810                           ;lcd_portd.c: 86: void LCD_Out(long int DATA, un
                                 signed char D, unsigned char N)
  1811                           ;lcd_portd.c: 87: {
  1812                           	
  1813  001D64                     _LCD_Out:		; BSR set to: ?
  1814                           
  1815                           	opt stack 29
  1816                           	line	90
  1817  001D64  0101               	movlb	1	; () banked
  1818  001D66  0101               	movlb	1	; () banked
  1819  001D68  AF0B               	btfss	((LCD_Out@DATA+3))&0ffh,7
  1820  001D6A  D001               	goto	u2821
  1821  001D6C  D001               	goto	u2820
  1822  001D6E                     u2821:
  1823  001D6E  D01B               	goto	l138
  1824  001D70                     u2820:
  1825                           	line	91
  1826                           ;lcd_portd.c: 91: LCD_Write('-');
  1827  001D70  0101               	movlb	1	; () banked
  1828  001D72  6F19               	movwf	(??_LCD_Out+11+0)&0ffh
  1829  001D74  0E2D               	movlw	low(02Dh)
  1830  001D76  0101               	movlb	1	; () banked
  1831  001D78  0101               	movlb	1	; () banked
  1832  001D7A  6F1A               	movwf	((?_LCD_Write))&0ffh
  1833  001D7C  0101               	movlb	1	; () banked
  1834  001D7E  5119               	movf	(??_LCD_Out+11+0)&0ffh,w
  1835  001D80  ECD2  F012         	call	_LCD_Write	;wreg free
  1836                           	line	92
  1837                           ;lcd_portd.c: 92: DATA = -DATA;
  1838  001D84  0101               	movlb	1	; () banked
  1839  001D86  0101               	movlb	1	; () banked
  1840  001D88  1F0B               	comf	((LCD_Out@DATA+3))&0ffh
  1841  001D8A  0101               	movlb	1	; () banked
  1842  001D8C  1F0A               	comf	((LCD_Out@DATA+2))&0ffh
  1843  001D8E  0101               	movlb	1	; () banked
  1844  001D90  1F09               	comf	((LCD_Out@DATA+1))&0ffh
  1845  001D92  0101               	movlb	1	; () banked
  1846  001D94  6D08               	negf	((LCD_Out@DATA))&0ffh
  1847  001D96  0E00               	movlw	0
  1848  001D98  0101               	movlb	1	; () banked
  1849  001D9A  2309               	addwfc	((LCD_Out@DATA+1))&0ffh
  1850  001D9C  0101               	movlb	1	; () banked
  1851  001D9E  230A               	addwfc	((LCD_Out@DATA+2))&0ffh
  1852  001DA0  0101               	movlb	1	; () banked
  1853  001DA2  230B               	addwfc	((LCD_Out@DATA+3))&0ffh
  1854                           	line	93
  1855                           ;lcd_portd.c: 93: }
  1856  001DA4  D00A               	goto	l139
  1857                           	line	94
  1858                           	
  1859  001DA6                     l138:		; BSR set to: ?
  1860                           
  1861                           ;lcd_portd.c: 94: else LCD_Write(' ');
  1862  001DA6  0101               	movlb	1	; () banked
  1863  001DA8  6F19               	movwf	(??_LCD_Out+11+0)&0ffh
  1864  001DAA  0E20               	movlw	low(020h)
  1865  001DAC  0101               	movlb	1	; () banked
  1866  001DAE  0101               	movlb	1	; () banked
  1867  001DB0  6F1A               	movwf	((?_LCD_Write))&0ffh
  1868  001DB2  0101               	movlb	1	; () banked
  1869  001DB4  5119               	movf	(??_LCD_Out+11+0)&0ffh,w
  1870  001DB6  ECD2  F012         	call	_LCD_Write	;wreg free
  1871                           	
  1872  001DBA                     l139:		; BSR set to: ?
  1873                           
  1874                           	line	95
  1875                           ;lcd_portd.c: 95: for (i=0; i<10; i++) {
  1876  001DBA  0101               	movlb	1	; () banked
  1877  001DBC  6F19               	movwf	(??_LCD_Out+11+0)&0ffh
  1878  001DBE  0E00               	movlw	low(0)
  1879  001DC0  0101               	movlb	1	; () banked
  1880  001DC2  0101               	movlb	1	; () banked
  1881  001DC4  6F0E               	movwf	((LCD_Out@i))&0ffh
  1882  001DC6  0101               	movlb	1	; () banked
  1883  001DC8  5119               	movf	(??_LCD_Out+11+0)&0ffh,w
  1884  001DCA  0E09               	movlw	(0Ah-1)
  1885  001DCC  0101               	movlb	1	; () banked
  1886  001DCE  0101               	movlb	1	; () banked
  1887  001DD0  650E               	cpfsgt	((LCD_Out@i))&0ffh
  1888  001DD2  D001               	goto	u2831
  1889  001DD4  D001               	goto	u2830
  1890  001DD6                     u2831:
  1891  001DD6  D001               	goto	l140
  1892  001DD8                     u2830:
  1893  001DD8  D04E               	goto	l141
  1894                           	
  1895  001DDA                     l140:		; BSR set to: ?
  1896                           
  1897                           	line	96
  1898                           ;lcd_portd.c: 96: A[i] = DATA % 10;
  1899  001DDA  0101               	movlb	1	; () banked
  1900  001DDC  0E0F               	movlw	low(LCD_Out@A)
  1901  001DDE  0101               	movlb	1	; () banked
  1902  001DE0  0101               	movlb	1	; () banked
  1903  001DE2  250E               	addwf	((LCD_Out@i))&0ffh,w
  1904  001DE4  6EE9               	movwf	c:fsr0l
  1905  001DE6  6AEA               	clrf	1+c:fsr0l
  1906  001DE8  0101               	movlb	1	; () banked
  1907  001DEA  0E01               	movlw	high(LCD_Out@A)
  1908  001DEC  22EA               	addwfc	1+c:fsr0l
  1909  001DEE  0E0A               	movlw	low(0Ah)
  1910  001DF0  0101               	movlb	1	; () banked
  1911  001DF2  0101               	movlb	1	; () banked
  1912  001DF4  6F1E               	movwf	(0+(?___almod+04h))&0ffh
  1913  001DF6  0E00               	movlw	high(0Ah)
  1914  001DF8  0101               	movlb	1	; () banked
  1915  001DFA  6F1F               	movwf	(1+(?___almod+04h))&0ffh
  1916  001DFC  0E00               	movlw	low highword(0Ah)
  1917  001DFE  0101               	movlb	1	; () banked
  1918  001E00  6F20               	movwf	(2+(?___almod+04h))&0ffh
  1919  001E02  0E00               	movlw	high highword(0Ah)
  1920  001E04  0101               	movlb	1	; () banked
  1921  001E06  6F21               	movwf	(3+(?___almod+04h))&0ffh
  1922  001E08  C108  F11A         	movff	(LCD_Out@DATA),(?___almod)
  1923  001E0C  C109  F11B         	movff	(LCD_Out@DATA+1),(?___almod+1)
  1924  001E10  C10A  F11C         	movff	(LCD_Out@DATA+2),(?___almod+2)
  1925  001E14  C10B  F11D         	movff	(LCD_Out@DATA+3),(?___almod+3)
  1926  001E18  ECEE  F00D         	call	___almod	;wreg free
  1927  001E1C  0101               	movlb	1	; () banked
  1928  001E1E  0101               	movlb	1	; () banked
  1929  001E20  511A               	movf	(0+?___almod)&0ffh,w
  1930  001E22  6EEF               	movwf	indf0
  1931                           
  1932                           	line	97
  1933                           ;lcd_portd.c: 97: DATA = DATA / 10;
  1934  001E24  0E0A               	movlw	low(0Ah)
  1935  001E26  0101               	movlb	1	; () banked
  1936  001E28  0101               	movlb	1	; () banked
  1937  001E2A  6F1E               	movwf	(0+(?___aldiv+04h))&0ffh
  1938  001E2C  0E00               	movlw	high(0Ah)
  1939  001E2E  0101               	movlb	1	; () banked
  1940  001E30  6F1F               	movwf	(1+(?___aldiv+04h))&0ffh
  1941  001E32  0E00               	movlw	low highword(0Ah)
  1942  001E34  0101               	movlb	1	; () banked
  1943  001E36  6F20               	movwf	(2+(?___aldiv+04h))&0ffh
  1944  001E38  0E00               	movlw	high highword(0Ah)
  1945  001E3A  0101               	movlb	1	; () banked
  1946  001E3C  6F21               	movwf	(3+(?___aldiv+04h))&0ffh
  1947  001E3E  C108  F11A         	movff	(LCD_Out@DATA),(?___aldiv)
  1948  001E42  C109  F11B         	movff	(LCD_Out@DATA+1),(?___aldiv+1)
  1949  001E46  C10A  F11C         	movff	(LCD_Out@DATA+2),(?___aldiv+2)
  1950  001E4A  C10B  F11D         	movff	(LCD_Out@DATA+3),(?___aldiv+3)
  1951  001E4E  EC69  F00B         	call	___aldiv	;wreg free
  1952  001E52  C11A  F108         	movff	0+?___aldiv,(LCD_Out@DATA)
  1953  001E56  C11B  F109         	movff	1+?___aldiv,(LCD_Out@DATA+1)
  1954  001E5A  C11C  F10A         	movff	2+?___aldiv,(LCD_Out@DATA+2)
  1955  001E5E  C11D  F10B         	movff	3+?___aldiv,(LCD_Out@DATA+3)
  1956                           	line	95
  1957  001E62  0101               	movlb	1	; () banked
  1958  001E64  0101               	movlb	1	; () banked
  1959  001E66  2B0E               	incf	((LCD_Out@i))&0ffh
  1960  001E68  0E09               	movlw	(0Ah-1)
  1961  001E6A  0101               	movlb	1	; () banked
  1962  001E6C  0101               	movlb	1	; () banked
  1963  001E6E  650E               	cpfsgt	((LCD_Out@i))&0ffh
  1964  001E70  D001               	goto	u2841
  1965  001E72  D001               	goto	u2840
  1966  001E74                     u2841:
  1967  001E74  D7B2               	goto	l140
  1968  001E76                     u2840:
  1969                           	
  1970  001E76                     l141:		; BSR set to: ?
  1971                           
  1972                           	line	99
  1973                           ;lcd_portd.c: 98: }
  1974                           ;lcd_portd.c: 99: for (i=D; i>0; i--) {
  1975  001E76  C10C  F10E         	movff	(LCD_Out@D),(LCD_Out@i)
  1976  001E7A  0101               	movlb	1	; () banked
  1977  001E7C  0101               	movlb	1	; () banked
  1978  001E7E  670E               	tstfsz	((LCD_Out@i))&0ffh
  1979  001E80  D001               	goto	u2851
  1980  001E82  D001               	goto	u2850
  1981  001E84                     u2851:
  1982  001E84  D001               	goto	l143
  1983  001E86                     u2850:
  1984  001E86  D031               	goto	l144
  1985                           	
  1986  001E88                     l143:		; BSR set to: ?
  1987                           
  1988                           	line	100
  1989                           ;lcd_portd.c: 100: if (i == N) LCD_Write('.');
  1990  001E88  0101               	movlb	1	; () banked
  1991  001E8A  0101               	movlb	1	; () banked
  1992  001E8C  510D               	movf	((LCD_Out@N))&0ffh,w
  1993  001E8E  0101               	movlb	1	; () banked
  1994  001E90  0101               	movlb	1	; () banked
  1995  001E92  630E               	cpfseq	((LCD_Out@i))&0ffh
  1996  001E94  D001               	goto	u2861
  1997  001E96  D001               	goto	u2860
  1998  001E98                     u2861:
  1999  001E98  D00A               	goto	l146
  2000  001E9A                     u2860:
  2001  001E9A  0101               	movlb	1	; () banked
  2002  001E9C  6F19               	movwf	(??_LCD_Out+11+0)&0ffh
  2003  001E9E  0E2E               	movlw	low(02Eh)
  2004  001EA0  0101               	movlb	1	; () banked
  2005  001EA2  0101               	movlb	1	; () banked
  2006  001EA4  6F1A               	movwf	((?_LCD_Write))&0ffh
  2007  001EA6  0101               	movlb	1	; () banked
  2008  001EA8  5119               	movf	(??_LCD_Out+11+0)&0ffh,w
  2009  001EAA  ECD2  F012         	call	_LCD_Write	;wreg free
  2010                           	
  2011  001EAE                     l146:		; BSR set to: ?
  2012                           
  2013                           	line	101
  2014                           ;lcd_portd.c: 101: LCD_Write(A[i-1] + '0');
  2015  001EAE  C10E  F119         	movff	(LCD_Out@i),??_LCD_Out+11+0
  2016  001EB2  0EFF               	movlw	-1
  2017  001EB4  0101               	movlb	1	; () banked
  2018  001EB6  2719               	addwf	(??_LCD_Out+11+0)&0ffh
  2019  001EB8  0101               	movlb	1	; () banked
  2020  001EBA  0E0F               	movlw	low(LCD_Out@A)
  2021  001EBC  0101               	movlb	1	; () banked
  2022  001EBE  2519               	addwf	(??_LCD_Out+11+0)&0ffh,w
  2023  001EC0  6EE9               	movwf	c:fsr0l
  2024  001EC2  6AEA               	clrf	1+c:fsr0l
  2025  001EC4  0101               	movlb	1	; () banked
  2026  001EC6  0E01               	movlw	high(LCD_Out@A)
  2027  001EC8  22EA               	addwfc	1+c:fsr0l
  2028  001ECA  50EF               	movf	indf0,w
  2029  001ECC  0F30               	addlw	low(030h)
  2030  001ECE  0101               	movlb	1	; () banked
  2031  001ED0  0101               	movlb	1	; () banked
  2032  001ED2  6F1A               	movwf	((?_LCD_Write))&0ffh
  2033  001ED4  ECD2  F012         	call	_LCD_Write	;wreg free
  2034                           	line	99
  2035  001ED8  0101               	movlb	1	; () banked
  2036  001EDA  0101               	movlb	1	; () banked
  2037  001EDC  070E               	decf	((LCD_Out@i))&0ffh
  2038  001EDE  0101               	movlb	1	; () banked
  2039  001EE0  0101               	movlb	1	; () banked
  2040  001EE2  670E               	tstfsz	((LCD_Out@i))&0ffh
  2041  001EE4  D001               	goto	u2871
  2042  001EE6  D001               	goto	u2870
  2043  001EE8                     u2871:
  2044  001EE8  D7CF               	goto	l143
  2045  001EEA                     u2870:
  2046                           	
  2047  001EEA                     l144:		; BSR set to: ?
  2048                           
  2049                           	line	103
  2050                           ;lcd_portd.c: 102: }
  2051                           ;lcd_portd.c: 103: }
  2052  001EEA                     l137:
  2053                           			; BSR set to: ?
  2054                           
  2055  001EEA  0012               	return
  2056                           	opt stack 0
  2057                           GLOBAL __end_of_LCD_Out
  2058  001EEC                     	__end_of_LCD_Out:
  2059                           	FNSIZE	_LCD_Out,12,6
  2060                           ; =============== function _LCD_Out ends =======
                                 =====
  2061                           
  2062                           	signat	_LCD_Out,12408
  2063                           	global	_LCD_Init
  2064                           	global	??_LCD_Init
  2065                           	global	?_LCD_Init
  2066                                   psect   text8,class=CODE,space=0,reloc=2
  2067                           
  2068                           	opt lm
  2069                           	file	"A:\OneDrive\School\College\Junior\Fa23\Em
                                 b Sys\c\hw10\timer1compare\lcd_portd.c"
  2070                           	line	73
  2071  000000                     	__size_of_LCD_Init	equ	__end_of_LCD_Init-_LCD_I
                                 nit
  2072                           ;lcd_portd.c: 72: void LCD_Init(void)
  2073                           ;lcd_portd.c: 73: {
  2074                           	
  2075  002308                     _LCD_Init:		; BSR set to: ?
  2076                           
  2077                           	opt stack 29
  2078                           	line	74
  2079                           ;lcd_portd.c: 74: TRISD = 0;
  2080  002308  0E00               	movlw	low(0)
  2081  00230A  6E95               	movwf	((c:3989)),c	;volatile
  2082                           	line	75
  2083                           ;lcd_portd.c: 75: RD1 = 0;
  2084  00230C  9283               	bcf	c:(31769/8),(31769)&7	;volatile
  2085                           	line	76
  2086                           ;lcd_portd.c: 76: LCD_Inst(0x33);
  2087  00230E  0101               	movlb	1	; () banked
  2088  002310  6F08               	movwf	(??_LCD_Init+0+0)&0ffh
  2089  002312  0E33               	movlw	low(033h)
  2090  002314  0101               	movlb	1	; () banked
  2091  002316  0101               	movlb	1	; () banked
  2092  002318  6F0A               	movwf	((?_LCD_Inst))&0ffh
  2093  00231A  0101               	movlb	1	; () banked
  2094  00231C  5108               	movf	(??_LCD_Init+0+0)&0ffh,w
  2095  00231E  EC89  F012         	call	_LCD_Inst	;wreg free
  2096                           	line	77
  2097                           ;lcd_portd.c: 77: LCD_Inst(0x32);
  2098  002322  0101               	movlb	1	; () banked
  2099  002324  6F08               	movwf	(??_LCD_Init+0+0)&0ffh
  2100  002326  0E32               	movlw	low(032h)
  2101  002328  0101               	movlb	1	; () banked
  2102  00232A  0101               	movlb	1	; () banked
  2103  00232C  6F0A               	movwf	((?_LCD_Inst))&0ffh
  2104  00232E  0101               	movlb	1	; () banked
  2105  002330  5108               	movf	(??_LCD_Init+0+0)&0ffh,w
  2106  002332  EC89  F012         	call	_LCD_Inst	;wreg free
  2107                           	line	78
  2108                           ;lcd_portd.c: 78: LCD_Inst(0x28);
  2109  002336  0101               	movlb	1	; () banked
  2110  002338  6F08               	movwf	(??_LCD_Init+0+0)&0ffh
  2111  00233A  0E28               	movlw	low(028h)
  2112  00233C  0101               	movlb	1	; () banked
  2113  00233E  0101               	movlb	1	; () banked
  2114  002340  6F0A               	movwf	((?_LCD_Inst))&0ffh
  2115  002342  0101               	movlb	1	; () banked
  2116  002344  5108               	movf	(??_LCD_Init+0+0)&0ffh,w
  2117  002346  EC89  F012         	call	_LCD_Inst	;wreg free
  2118                           	line	79
  2119                           ;lcd_portd.c: 79: LCD_Inst(0x0E);
  2120  00234A  0101               	movlb	1	; () banked
  2121  00234C  6F08               	movwf	(??_LCD_Init+0+0)&0ffh
  2122  00234E  0E0E               	movlw	low(0Eh)
  2123  002350  0101               	movlb	1	; () banked
  2124  002352  0101               	movlb	1	; () banked
  2125  002354  6F0A               	movwf	((?_LCD_Inst))&0ffh
  2126  002356  0101               	movlb	1	; () banked
  2127  002358  5108               	movf	(??_LCD_Init+0+0)&0ffh,w
  2128  00235A  EC89  F012         	call	_LCD_Inst	;wreg free
  2129                           	line	80
  2130                           ;lcd_portd.c: 80: LCD_Inst(0x01);
  2131  00235E  0101               	movlb	1	; () banked
  2132  002360  6F08               	movwf	(??_LCD_Init+0+0)&0ffh
  2133  002362  0E01               	movlw	low(01h)
  2134  002364  0101               	movlb	1	; () banked
  2135  002366  0101               	movlb	1	; () banked
  2136  002368  6F0A               	movwf	((?_LCD_Inst))&0ffh
  2137  00236A  0101               	movlb	1	; () banked
  2138  00236C  5108               	movf	(??_LCD_Init+0+0)&0ffh,w
  2139  00236E  EC89  F012         	call	_LCD_Inst	;wreg free
  2140                           	line	81
  2141                           ;lcd_portd.c: 81: LCD_Inst(0x06);
  2142  002372  0101               	movlb	1	; () banked
  2143  002374  6F08               	movwf	(??_LCD_Init+0+0)&0ffh
  2144  002376  0E06               	movlw	low(06h)
  2145  002378  0101               	movlb	1	; () banked
  2146  00237A  0101               	movlb	1	; () banked
  2147  00237C  6F0A               	movwf	((?_LCD_Inst))&0ffh
  2148  00237E  0101               	movlb	1	; () banked
  2149  002380  5108               	movf	(??_LCD_Init+0+0)&0ffh,w
  2150  002382  EC89  F012         	call	_LCD_Inst	;wreg free
  2151                           	line	82
  2152                           ;lcd_portd.c: 82: Wait_ms(100);
  2153  002386  0E64               	movlw	low(064h)
  2154  002388  0101               	movlb	1	; () banked
  2155  00238A  0101               	movlb	1	; () banked
  2156  00238C  6F0C               	movwf	((?_Wait_ms))&0ffh
  2157  00238E  0E00               	movlw	high(064h)
  2158  002390  0101               	movlb	1	; () banked
  2159  002392  6F0D               	movwf	((?_Wait_ms+1))&0ffh
  2160  002394  EC0F  F012         	call	_Wait_ms	;wreg free
  2161                           	line	83
  2162                           ;lcd_portd.c: 83: }
  2163  002398                     l136:
  2164                           			; BSR set to: ?
  2165                           
  2166  002398  0012               	return
  2167                           	opt stack 0
  2168                           GLOBAL __end_of_LCD_Init
  2169  00239A                     	__end_of_LCD_Init:
  2170                           	FNSIZE	_LCD_Init,1,0
  2171                           ; =============== function _LCD_Init ends ======
                                 ======
  2172                           
  2173                           	signat	_LCD_Init,88
  2174                           	global	___ftadd
  2175                           	global	??___ftadd
  2176                           	global	?___ftadd
  2177                                   psect   text9,class=CODE,space=0,reloc=2
  2178                           
  2179                           	opt lm
  2180                           	file	"C:\Program Files (x86)\HI-TECH Software\P
                                 ICC-18\PRO\9.63\sources\ftadd.c"
  2181                           	line	17
  2182  000000                     	__size_of___ftadd	equ	__end_of___ftadd-___ftadd
  2183                           	
  2184  001398                     ___ftadd:		; BSR set to: ?
  2185                           
  2186                           	opt stack 28
  2187                           	line	20
  2188  001398  D000               	goto	l378
  2189                           	line	21
  2190                           	
  2191  00139A                     l378:		; BSR set to: ?
  2192                           
  2193                           	line	22
  2194  00139A  0101               	movlb	1	; () banked
  2195  00139C  0E18               	movlw	low(___ftadd@exp1)
  2196  00139E  0101               	movlb	1	; () banked
  2197  0013A0  0101               	movlb	1	; () banked
  2198  0013A2  6F1C               	movwf	(0+(?___ftunpack+02h))&0ffh
  2199  0013A4  0101               	movlb	1	; () banked
  2200  0013A6  0E01               	movlw	high(___ftadd@exp1)
  2201  0013A8  0101               	movlb	1	; () banked
  2202  0013AA  6F1D               	movwf	(1+(?___ftunpack+02h))&0ffh
  2203  0013AC  0101               	movlb	1	; () banked
  2204  0013AE  0E0E               	movlw	low(___ftadd@f1)
  2205  0013B0  0101               	movlb	1	; () banked
  2206  0013B2  0101               	movlb	1	; () banked
  2207  0013B4  6F1A               	movwf	((?___ftunpack))&0ffh
  2208  0013B6  0101               	movlb	1	; () banked
  2209  0013B8  0E01               	movlw	high(___ftadd@f1)
  2210  0013BA  0101               	movlb	1	; () banked
  2211  0013BC  6F1B               	movwf	((?___ftunpack+1))&0ffh
  2212  0013BE  EC2F  F011         	call	___ftunpack	;wreg free
  2213  0013C2  0101               	movlb	1	; () banked
  2214  0013C4  0101               	movlb	1	; () banked
  2215  0013C6  6F16               	movwf	((___ftadd@sign1))&0ffh
  2216                           	line	23
  2217  0013C8  0101               	movlb	1	; () banked
  2218  0013CA  0101               	movlb	1	; () banked
  2219  0013CC  6718               	tstfsz	((___ftadd@exp1))&0ffh
  2220  0013CE  D001               	goto	u2881
  2221  0013D0  D001               	goto	u2880
  2222  0013D2                     u2881:
  2223  0013D2  D007               	goto	l379
  2224  0013D4                     u2880:
  2225                           	line	24
  2226  0013D4  C111  F10E         	movff	(___ftadd@f2),(?___ftadd)
  2227  0013D8  C112  F10F         	movff	(___ftadd@f2+1),(?___ftadd+1)
  2228  0013DC  C113  F110         	movff	(___ftadd@f2+2),(?___ftadd+2)
  2229  0013E0  D177               	goto	l377
  2230                           	
  2231  0013E2                     l379:		; BSR set to: ?
  2232                           
  2233                           	line	25
  2234  0013E2  0101               	movlb	1	; () banked
  2235  0013E4  0E17               	movlw	low(___ftadd@exp2)
  2236  0013E6  0101               	movlb	1	; () banked
  2237  0013E8  0101               	movlb	1	; () banked
  2238  0013EA  6F1C               	movwf	(0+(?___ftunpack+02h))&0ffh
  2239  0013EC  0101               	movlb	1	; () banked
  2240  0013EE  0E01               	movlw	high(___ftadd@exp2)
  2241  0013F0  0101               	movlb	1	; () banked
  2242  0013F2  6F1D               	movwf	(1+(?___ftunpack+02h))&0ffh
  2243  0013F4  0101               	movlb	1	; () banked
  2244  0013F6  0E11               	movlw	low(___ftadd@f2)
  2245  0013F8  0101               	movlb	1	; () banked
  2246  0013FA  0101               	movlb	1	; () banked
  2247  0013FC  6F1A               	movwf	((?___ftunpack))&0ffh
  2248  0013FE  0101               	movlb	1	; () banked
  2249  001400  0E01               	movlw	high(___ftadd@f2)
  2250  001402  0101               	movlb	1	; () banked
  2251  001404  6F1B               	movwf	((?___ftunpack+1))&0ffh
  2252  001406  EC2F  F011         	call	___ftunpack	;wreg free
  2253  00140A  0101               	movlb	1	; () banked
  2254  00140C  0101               	movlb	1	; () banked
  2255  00140E  6F14               	movwf	((___ftadd@sign2))&0ffh
  2256                           	line	26
  2257  001410  0101               	movlb	1	; () banked
  2258  001412  0101               	movlb	1	; () banked
  2259  001414  5117               	movf	((___ftadd@exp2))&0ffh,w
  2260  001416  B4D8               	btfsc	status,2
  2261  001418  D001               	goto	u2891
  2262  00141A  D001               	goto	u2890
  2263  00141C                     u2891:
  2264  00141C  D132               	goto	l380
  2265  00141E                     u2890:
  2266                           	line	27
  2267  00141E  0101               	movlb	1	; () banked
  2268  001420  6F19               	movwf	(??___ftadd+5+0)&0ffh
  2269  001422  0E06               	movlw	low(06h)
  2270  001424  0101               	movlb	1	; () banked
  2271  001426  0101               	movlb	1	; () banked
  2272  001428  6F15               	movwf	((___ftadd@cntr))&0ffh
  2273  00142A  0101               	movlb	1	; () banked
  2274  00142C  5119               	movf	(??___ftadd+5+0)&0ffh,w
  2275                           	line	29
  2276  00142E  0101               	movlb	1	; () banked
  2277  001430  0101               	movlb	1	; () banked
  2278  001432  5117               	movf	((___ftadd@exp2))&0ffh,w
  2279  001434  0101               	movlb	1	; () banked
  2280  001436  0101               	movlb	1	; () banked
  2281  001438  6118               	cpfslt	((___ftadd@exp1))&0ffh
  2282  00143A  D001               	goto	u2901
  2283  00143C  D001               	goto	u2900
  2284  00143E                     u2901:
  2285  00143E  D04F               	goto	l381
  2286  001440                     u2900:
  2287                           	line	30
  2288  001440  0101               	movlb	1	; () banked
  2289  001442  0101               	movlb	1	; () banked
  2290  001444  5118               	movf	((___ftadd@exp1))&0ffh,w
  2291  001446  0101               	movlb	1	; () banked
  2292  001448  0101               	movlb	1	; () banked
  2293  00144A  5D17               	subwf	((___ftadd@exp2))&0ffh,w
  2294  00144C  0101               	movlb	1	; () banked
  2295  00144E  6F19               	movwf	(??___ftadd+5+0)&0ffh
  2296  001450  0E19               	movlw	(019h)&0ffh
  2297  001452  0101               	movlb	1	; () banked
  2298  001454  5D19               	subwf	((??___ftadd+5+0))&0ffh,w
  2299  001456  A0D8               	btfss	status,0
  2300  001458  D001               	goto	u2911
  2301  00145A  D001               	goto	u2910
  2302  00145C                     u2911:
  2303  00145C  D011               	goto	l386
  2304  00145E                     u2910:
  2305                           	line	32
  2306  00145E  0E00               	movlw	low(0)
  2307  001460  0101               	movlb	1	; () banked
  2308  001462  0101               	movlb	1	; () banked
  2309  001464  6F0E               	movwf	((___ftadd@f1))&0ffh
  2310  001466  0E00               	movlw	high(0)
  2311  001468  0101               	movlb	1	; () banked
  2312  00146A  0101               	movlb	1	; () banked
  2313  00146C  6F0F               	movwf	((___ftadd@f1+1))&0ffh
  2314  00146E  0E00               	movlw	low highword(0)
  2315  001470  0101               	movlb	1	; () banked
  2316  001472  0101               	movlb	1	; () banked
  2317  001474  6F10               	movwf	((___ftadd@f1+2))&0ffh
  2318                           
  2319                           	line	33
  2320  001476  C117  F118         	movff	(___ftadd@exp2),(___ftadd@exp1)
  2321                           	line	34
  2322  00147A  C114  F116         	movff	(___ftadd@sign2),(___ftadd@sign1)
  2323                           	line	35
  2324  00147E  D02E               	goto	l383
  2325                           	line	38
  2326                           	
  2327  001480                     l386:		; BSR set to: ?
  2328                           
  2329                           	line	39
  2330  001480  0101               	movlb	1	; () banked
  2331  001482  90D8               	bcf	status,0
  2332  001484  0101               	movlb	1	; () banked
  2333  001486  3711               	rlcf	((___ftadd@f2))&0ffh
  2334  001488  0101               	movlb	1	; () banked
  2335  00148A  3712               	rlcf	((___ftadd@f2+1))&0ffh
  2336  00148C  0101               	movlb	1	; () banked
  2337  00148E  3713               	rlcf	((___ftadd@f2+2))&0ffh
  2338                           	line	40
  2339  001490  0101               	movlb	1	; () banked
  2340  001492  0101               	movlb	1	; () banked
  2341  001494  0717               	decf	((___ftadd@exp2))&0ffh
  2342                           	line	41
  2343  001496  0101               	movlb	1	; () banked
  2344  001498  0101               	movlb	1	; () banked
  2345  00149A  5117               	movf	((___ftadd@exp2))&0ffh,w
  2346  00149C  0101               	movlb	1	; () banked
  2347  00149E  0101               	movlb	1	; () banked
  2348  0014A0  1918               	xorwf	((___ftadd@exp1))&0ffh,w
  2349  0014A2  B4D8               	btfsc	status,2
  2350  0014A4  D001               	goto	u2921
  2351  0014A6  D001               	goto	u2920
  2352  0014A8                     u2921:
  2353  0014A8  D004               	goto	l385
  2354  0014AA                     u2920:
  2355  0014AA  0101               	movlb	1	; () banked
  2356  0014AC  0101               	movlb	1	; () banked
  2357  0014AE  2F15               	decfsz	((___ftadd@cntr))&0ffh
  2358                           	
  2359  0014B0  D7E7               	goto	l386
  2360                           	
  2361  0014B2                     l600000276:		; BSR set to: ?
  2362                           
  2363                           	
  2364  0014B2                     l385:		; BSR set to: ?
  2365                           
  2366                           	line	42
  2367  0014B2  D00B               	goto	l387
  2368                           	
  2369  0014B4                     l388:		; BSR set to: ?
  2370                           
  2371                           	line	43
  2372  0014B4  0101               	movlb	1	; () banked
  2373  0014B6  90D8               	bcf	status,0
  2374  0014B8  0101               	movlb	1	; () banked
  2375  0014BA  3310               	rrcf	((___ftadd@f1+2))&0ffh
  2376  0014BC  0101               	movlb	1	; () banked
  2377  0014BE  330F               	rrcf	((___ftadd@f1+1))&0ffh
  2378  0014C0  0101               	movlb	1	; () banked
  2379  0014C2  330E               	rrcf	((___ftadd@f1))&0ffh
  2380                           	line	44
  2381  0014C4  0101               	movlb	1	; () banked
  2382  0014C6  0101               	movlb	1	; () banked
  2383  0014C8  2B18               	incf	((___ftadd@exp1))&0ffh
  2384                           	line	45
  2385                           	
  2386  0014CA                     l387:		; BSR set to: ?
  2387                           
  2388                           	line	42
  2389  0014CA  0101               	movlb	1	; () banked
  2390  0014CC  0101               	movlb	1	; () banked
  2391  0014CE  5117               	movf	((___ftadd@exp2))&0ffh,w
  2392  0014D0  0101               	movlb	1	; () banked
  2393  0014D2  0101               	movlb	1	; () banked
  2394  0014D4  6318               	cpfseq	((___ftadd@exp1))&0ffh
  2395  0014D6  D001               	goto	u2931
  2396  0014D8  D001               	goto	u2930
  2397  0014DA                     u2931:
  2398  0014DA  D7EC               	goto	l388
  2399  0014DC                     u2930:
  2400                           	
  2401  0014DC                     l389:		; BSR set to: ?
  2402                           
  2403                           	line	46
  2404                           	
  2405  0014DC                     l383:		; BSR set to: ?
  2406                           
  2407                           	line	47
  2408  0014DC  D054               	goto	l390
  2409                           	
  2410  0014DE                     l381:		; BSR set to: ?
  2411                           
  2412  0014DE  0101               	movlb	1	; () banked
  2413  0014E0  0101               	movlb	1	; () banked
  2414  0014E2  5118               	movf	((___ftadd@exp1))&0ffh,w
  2415  0014E4  0101               	movlb	1	; () banked
  2416  0014E6  0101               	movlb	1	; () banked
  2417  0014E8  1917               	xorwf	((___ftadd@exp2))&0ffh,w
  2418  0014EA  B4D8               	btfsc	status,2
  2419  0014EC  D001               	goto	u2941
  2420  0014EE  D001               	goto	u2940
  2421  0014F0                     u2941:
  2422  0014F0  D04A               	goto	l390
  2423  0014F2                     u2940:
  2424                           	line	48
  2425  0014F2  0101               	movlb	1	; () banked
  2426  0014F4  0101               	movlb	1	; () banked
  2427  0014F6  5117               	movf	((___ftadd@exp2))&0ffh,w
  2428  0014F8  0101               	movlb	1	; () banked
  2429  0014FA  0101               	movlb	1	; () banked
  2430  0014FC  5D18               	subwf	((___ftadd@exp1))&0ffh,w
  2431  0014FE  0101               	movlb	1	; () banked
  2432  001500  6F19               	movwf	(??___ftadd+5+0)&0ffh
  2433  001502  0E19               	movlw	(019h)&0ffh
  2434  001504  0101               	movlb	1	; () banked
  2435  001506  5D19               	subwf	((??___ftadd+5+0))&0ffh,w
  2436  001508  A0D8               	btfss	status,0
  2437  00150A  D001               	goto	u2951
  2438  00150C  D001               	goto	u2950
  2439  00150E                     u2951:
  2440  00150E  D00D               	goto	l396
  2441  001510                     u2950:
  2442                           	line	49
  2443  001510  0E00               	movlw	low(0)
  2444  001512  0101               	movlb	1	; () banked
  2445  001514  0101               	movlb	1	; () banked
  2446  001516  6F11               	movwf	((___ftadd@f2))&0ffh
  2447  001518  0E00               	movlw	high(0)
  2448  00151A  0101               	movlb	1	; () banked
  2449  00151C  0101               	movlb	1	; () banked
  2450  00151E  6F12               	movwf	((___ftadd@f2+1))&0ffh
  2451  001520  0E00               	movlw	low highword(0)
  2452  001522  0101               	movlb	1	; () banked
  2453  001524  0101               	movlb	1	; () banked
  2454  001526  6F13               	movwf	((___ftadd@f2+2))&0ffh
  2455                           
  2456  001528  D02E               	goto	l390
  2457                           	line	53
  2458                           	
  2459  00152A                     l396:		; BSR set to: ?
  2460                           
  2461                           	line	54
  2462  00152A  0101               	movlb	1	; () banked
  2463  00152C  90D8               	bcf	status,0
  2464  00152E  0101               	movlb	1	; () banked
  2465  001530  370E               	rlcf	((___ftadd@f1))&0ffh
  2466  001532  0101               	movlb	1	; () banked
  2467  001534  370F               	rlcf	((___ftadd@f1+1))&0ffh
  2468  001536  0101               	movlb	1	; () banked
  2469  001538  3710               	rlcf	((___ftadd@f1+2))&0ffh
  2470                           	line	55
  2471  00153A  0101               	movlb	1	; () banked
  2472  00153C  0101               	movlb	1	; () banked
  2473  00153E  0718               	decf	((___ftadd@exp1))&0ffh
  2474                           	line	56
  2475  001540  0101               	movlb	1	; () banked
  2476  001542  0101               	movlb	1	; () banked
  2477  001544  5117               	movf	((___ftadd@exp2))&0ffh,w
  2478  001546  0101               	movlb	1	; () banked
  2479  001548  0101               	movlb	1	; () banked
  2480  00154A  1918               	xorwf	((___ftadd@exp1))&0ffh,w
  2481  00154C  B4D8               	btfsc	status,2
  2482  00154E  D001               	goto	u2961
  2483  001550  D001               	goto	u2960
  2484  001552                     u2961:
  2485  001552  D004               	goto	l395
  2486  001554                     u2960:
  2487  001554  0101               	movlb	1	; () banked
  2488  001556  0101               	movlb	1	; () banked
  2489  001558  2F15               	decfsz	((___ftadd@cntr))&0ffh
  2490                           	
  2491  00155A  D7E7               	goto	l396
  2492                           	
  2493  00155C                     l600000277:		; BSR set to: ?
  2494                           
  2495                           	
  2496  00155C                     l395:		; BSR set to: ?
  2497                           
  2498                           	line	57
  2499  00155C  D00B               	goto	l397
  2500                           	
  2501  00155E                     l398:		; BSR set to: ?
  2502                           
  2503                           	line	58
  2504  00155E  0101               	movlb	1	; () banked
  2505  001560  90D8               	bcf	status,0
  2506  001562  0101               	movlb	1	; () banked
  2507  001564  3313               	rrcf	((___ftadd@f2+2))&0ffh
  2508  001566  0101               	movlb	1	; () banked
  2509  001568  3312               	rrcf	((___ftadd@f2+1))&0ffh
  2510  00156A  0101               	movlb	1	; () banked
  2511  00156C  3311               	rrcf	((___ftadd@f2))&0ffh
  2512                           	line	59
  2513  00156E  0101               	movlb	1	; () banked
  2514  001570  0101               	movlb	1	; () banked
  2515  001572  2B17               	incf	((___ftadd@exp2))&0ffh
  2516                           	line	60
  2517                           	
  2518  001574                     l397:		; BSR set to: ?
  2519                           
  2520                           	line	57
  2521  001574  0101               	movlb	1	; () banked
  2522  001576  0101               	movlb	1	; () banked
  2523  001578  5117               	movf	((___ftadd@exp2))&0ffh,w
  2524  00157A  0101               	movlb	1	; () banked
  2525  00157C  0101               	movlb	1	; () banked
  2526  00157E  6318               	cpfseq	((___ftadd@exp1))&0ffh
  2527  001580  D001               	goto	u2971
  2528  001582  D001               	goto	u2970
  2529  001584                     u2971:
  2530  001584  D7EC               	goto	l398
  2531  001586                     u2970:
  2532                           	
  2533  001586                     l399:		; BSR set to: ?
  2534                           
  2535                           	line	61
  2536                           	
  2537  001586                     l393:		; BSR set to: ?
  2538                           
  2539                           	line	62
  2540                           	
  2541  001586                     l391:		; BSR set to: ?
  2542                           
  2543                           	line	63
  2544                           	
  2545  001586                     l390:		; BSR set to: ?
  2546                           
  2547  001586  0101               	movlb	1	; () banked
  2548  001588  0101               	movlb	1	; () banked
  2549  00158A  5116               	movf	((___ftadd@sign1))&0ffh,w
  2550  00158C  B4D8               	btfsc	status,2
  2551  00158E  D001               	goto	u2981
  2552  001590  D001               	goto	u2980
  2553  001592                     u2981:
  2554  001592  D018               	goto	l400
  2555  001594                     u2980:
  2556                           	line	64
  2557  001594  0EFF               	movlw	low(0FFFFFFh)
  2558  001596  0101               	movlb	1	; () banked
  2559  001598  0101               	movlb	1	; () banked
  2560  00159A  1B0E               	xorwf	((___ftadd@f1))&0ffh
  2561  00159C  0EFF               	movlw	high(0FFFFFFh)
  2562  00159E  0101               	movlb	1	; () banked
  2563  0015A0  0101               	movlb	1	; () banked
  2564  0015A2  1B0F               	xorwf	((___ftadd@f1+1))&0ffh
  2565  0015A4  0EFF               	movlw	low highword(0FFFFFFh)
  2566  0015A6  0101               	movlb	1	; () banked
  2567  0015A8  0101               	movlb	1	; () banked
  2568  0015AA  1B10               	xorwf	((___ftadd@f1+2))&0ffh
  2569                           
  2570                           	line	65
  2571  0015AC  0E01               	movlw	low(01h)
  2572  0015AE  0101               	movlb	1	; () banked
  2573  0015B0  0101               	movlb	1	; () banked
  2574  0015B2  270E               	addwf	((___ftadd@f1))&0ffh
  2575  0015B4  0E00               	movlw	high(01h)
  2576  0015B6  0101               	movlb	1	; () banked
  2577  0015B8  0101               	movlb	1	; () banked
  2578  0015BA  230F               	addwfc	((___ftadd@f1+1))&0ffh
  2579  0015BC  0E00               	movlw	low highword(01h)
  2580  0015BE  0101               	movlb	1	; () banked
  2581  0015C0  0101               	movlb	1	; () banked
  2582  0015C2  2310               	addwfc	((___ftadd@f1+2))&0ffh
  2583                           
  2584                           	line	66
  2585                           	
  2586  0015C4                     l400:		; BSR set to: ?
  2587                           
  2588                           	line	67
  2589  0015C4  0101               	movlb	1	; () banked
  2590  0015C6  0101               	movlb	1	; () banked
  2591  0015C8  5114               	movf	((___ftadd@sign2))&0ffh,w
  2592  0015CA  B4D8               	btfsc	status,2
  2593  0015CC  D001               	goto	u2991
  2594  0015CE  D001               	goto	u2990
  2595  0015D0                     u2991:
  2596  0015D0  D018               	goto	l401
  2597  0015D2                     u2990:
  2598                           	line	68
  2599  0015D2  0EFF               	movlw	low(0FFFFFFh)
  2600  0015D4  0101               	movlb	1	; () banked
  2601  0015D6  0101               	movlb	1	; () banked
  2602  0015D8  1B11               	xorwf	((___ftadd@f2))&0ffh
  2603  0015DA  0EFF               	movlw	high(0FFFFFFh)
  2604  0015DC  0101               	movlb	1	; () banked
  2605  0015DE  0101               	movlb	1	; () banked
  2606  0015E0  1B12               	xorwf	((___ftadd@f2+1))&0ffh
  2607  0015E2  0EFF               	movlw	low highword(0FFFFFFh)
  2608  0015E4  0101               	movlb	1	; () banked
  2609  0015E6  0101               	movlb	1	; () banked
  2610  0015E8  1B13               	xorwf	((___ftadd@f2+2))&0ffh
  2611                           
  2612                           	line	69
  2613  0015EA  0E01               	movlw	low(01h)
  2614  0015EC  0101               	movlb	1	; () banked
  2615  0015EE  0101               	movlb	1	; () banked
  2616  0015F0  2711               	addwf	((___ftadd@f2))&0ffh
  2617  0015F2  0E00               	movlw	high(01h)
  2618  0015F4  0101               	movlb	1	; () banked
  2619  0015F6  0101               	movlb	1	; () banked
  2620  0015F8  2312               	addwfc	((___ftadd@f2+1))&0ffh
  2621  0015FA  0E00               	movlw	low highword(01h)
  2622  0015FC  0101               	movlb	1	; () banked
  2623  0015FE  0101               	movlb	1	; () banked
  2624  001600  2313               	addwfc	((___ftadd@f2+2))&0ffh
  2625                           
  2626                           	line	70
  2627                           	
  2628  001602                     l401:		; BSR set to: ?
  2629                           
  2630                           	line	71
  2631  001602  0101               	movlb	1	; () banked
  2632  001604  6F19               	movwf	(??___ftadd+5+0)&0ffh
  2633  001606  0E00               	movlw	low(0)
  2634  001608  0101               	movlb	1	; () banked
  2635  00160A  0101               	movlb	1	; () banked
  2636  00160C  6F16               	movwf	((___ftadd@sign1))&0ffh
  2637  00160E  0101               	movlb	1	; () banked
  2638  001610  5119               	movf	(??___ftadd+5+0)&0ffh,w
  2639                           	line	72
  2640  001612  0101               	movlb	1	; () banked
  2641  001614  0101               	movlb	1	; () banked
  2642  001616  5111               	movf	((___ftadd@f2))&0ffh,w
  2643  001618  0101               	movlb	1	; () banked
  2644  00161A  0101               	movlb	1	; () banked
  2645  00161C  270E               	addwf	((___ftadd@f1))&0ffh
  2646  00161E  0101               	movlb	1	; () banked
  2647  001620  0101               	movlb	1	; () banked
  2648  001622  5112               	movf	((___ftadd@f2+1))&0ffh,w
  2649  001624  0101               	movlb	1	; () banked
  2650  001626  0101               	movlb	1	; () banked
  2651  001628  230F               	addwfc	((___ftadd@f1+1))&0ffh
  2652  00162A  0101               	movlb	1	; () banked
  2653  00162C  0101               	movlb	1	; () banked
  2654  00162E  5113               	movf	((___ftadd@f2+2))&0ffh,w
  2655  001630  0101               	movlb	1	; () banked
  2656  001632  0101               	movlb	1	; () banked
  2657  001634  2310               	addwfc	((___ftadd@f1+2))&0ffh
  2658                           
  2659                           	line	73
  2660  001636  0101               	movlb	1	; () banked
  2661                           	
  2662  001638  0101               	movlb	1	; () banked
  2663  00163A  AF10               	btfss	((___ftadd@f1+2))&0ffh,(23)&7
  2664  00163C  D001               	goto	u3001
  2665  00163E  D001               	goto	u3000
  2666  001640                     u3001:
  2667  001640  D020               	goto	l380
  2668  001642                     u3000:
  2669                           	line	74
  2670  001642  0EFF               	movlw	low(0FFFFFFh)
  2671  001644  0101               	movlb	1	; () banked
  2672  001646  0101               	movlb	1	; () banked
  2673  001648  1B0E               	xorwf	((___ftadd@f1))&0ffh
  2674  00164A  0EFF               	movlw	high(0FFFFFFh)
  2675  00164C  0101               	movlb	1	; () banked
  2676  00164E  0101               	movlb	1	; () banked
  2677  001650  1B0F               	xorwf	((___ftadd@f1+1))&0ffh
  2678  001652  0EFF               	movlw	low highword(0FFFFFFh)
  2679  001654  0101               	movlb	1	; () banked
  2680  001656  0101               	movlb	1	; () banked
  2681  001658  1B10               	xorwf	((___ftadd@f1+2))&0ffh
  2682                           
  2683                           	line	75
  2684  00165A  0E01               	movlw	low(01h)
  2685  00165C  0101               	movlb	1	; () banked
  2686  00165E  0101               	movlb	1	; () banked
  2687  001660  270E               	addwf	((___ftadd@f1))&0ffh
  2688  001662  0E00               	movlw	high(01h)
  2689  001664  0101               	movlb	1	; () banked
  2690  001666  0101               	movlb	1	; () banked
  2691  001668  230F               	addwfc	((___ftadd@f1+1))&0ffh
  2692  00166A  0E00               	movlw	low highword(01h)
  2693  00166C  0101               	movlb	1	; () banked
  2694  00166E  0101               	movlb	1	; () banked
  2695  001670  2310               	addwfc	((___ftadd@f1+2))&0ffh
  2696                           
  2697                           	line	76
  2698  001672  0101               	movlb	1	; () banked
  2699  001674  6F19               	movwf	(??___ftadd+5+0)&0ffh
  2700  001676  0E01               	movlw	low(01h)
  2701  001678  0101               	movlb	1	; () banked
  2702  00167A  0101               	movlb	1	; () banked
  2703  00167C  6F16               	movwf	((___ftadd@sign1))&0ffh
  2704  00167E  0101               	movlb	1	; () banked
  2705  001680  5119               	movf	(??___ftadd+5+0)&0ffh,w
  2706                           	line	77
  2707                           	
  2708  001682                     l402:		; BSR set to: ?
  2709                           
  2710                           	line	78
  2711                           	
  2712  001682                     l380:		; BSR set to: ?
  2713                           
  2714                           	line	79
  2715  001682  C118  F11C         	movff	(___ftadd@exp1),0+(?___ftpack+02h)
  2716  001686  0101               	movlb	1	; () banked
  2717  001688  0E0E               	movlw	low(___ftadd@f1)
  2718  00168A  0101               	movlb	1	; () banked
  2719  00168C  0101               	movlb	1	; () banked
  2720  00168E  6F1A               	movwf	((?___ftpack))&0ffh
  2721  001690  0101               	movlb	1	; () banked
  2722  001692  0E01               	movlw	high(___ftadd@f1)
  2723  001694  0101               	movlb	1	; () banked
  2724  001696  6F1B               	movwf	((?___ftpack+1))&0ffh
  2725  001698  EC18  F010         	call	___ftpack	;wreg free
  2726                           	line	80
  2727  00169C  0101               	movlb	1	; () banked
  2728  00169E  0101               	movlb	1	; () banked
  2729  0016A0  5116               	movf	((___ftadd@sign1))&0ffh,w
  2730  0016A2  B4D8               	btfsc	status,2
  2731  0016A4  D001               	goto	u3011
  2732  0016A6  D001               	goto	u3010
  2733  0016A8                     u3011:
  2734  0016A8  D00C               	goto	l403
  2735  0016AA                     u3010:
  2736                           	line	81
  2737  0016AA  0E00               	movlw	low(0800000h)
  2738  0016AC  0101               	movlb	1	; () banked
  2739  0016AE  0101               	movlb	1	; () banked
  2740  0016B0  1B0E               	xorwf	((___ftadd@f1))&0ffh
  2741  0016B2  0E00               	movlw	high(0800000h)
  2742  0016B4  0101               	movlb	1	; () banked
  2743  0016B6  0101               	movlb	1	; () banked
  2744  0016B8  1B0F               	xorwf	((___ftadd@f1+1))&0ffh
  2745  0016BA  0E80               	movlw	low highword(0800000h)
  2746  0016BC  0101               	movlb	1	; () banked
  2747  0016BE  0101               	movlb	1	; () banked
  2748  0016C0  1B10               	xorwf	((___ftadd@f1+2))&0ffh
  2749                           
  2750                           	
  2751  0016C2                     l403:		; BSR set to: ?
  2752                           
  2753                           	line	82
  2754  0016C2  C10E  F10E         	movff	(___ftadd@f1),(?___ftadd)
  2755  0016C6  C10F  F10F         	movff	(___ftadd@f1+1),(?___ftadd+1)
  2756  0016CA  C110  F110         	movff	(___ftadd@f1+2),(?___ftadd+2)
  2757  0016CE  D000               	goto	l377
  2758                           	line	83
  2759  0016D0                     l377:
  2760                           			; BSR set to: ?
  2761                           
  2762  0016D0  0012               	return
  2763                           	opt stack 0
  2764                           GLOBAL __end_of___ftadd
  2765  0016D2                     	__end_of___ftadd:
  2766                           	FNSIZE	___ftadd,6,6
  2767                           ; =============== function ___ftadd ends =======
                                 =====
  2768                           
  2769                           	signat	___ftadd,8315
  2770                           	global	_LCD_Inst
  2771                           	global	??_LCD_Inst
  2772                           	global	?_LCD_Inst
  2773                                   psect   text10,class=CODE,space=0,reloc=
                                 2
  2774                           
  2775                           	opt lm
  2776                           	file	"A:\OneDrive\School\College\Junior\Fa23\Em
                                 b Sys\c\hw10\timer1compare\lcd_portd.c"
  2777                           	line	44
  2778  000000                     	__size_of_LCD_Inst	equ	__end_of_LCD_Inst-_LCD_I
                                 nst
  2779                           ;lcd_portd.c: 43: void LCD_Inst(unsigned char c)
  2780                           ;lcd_portd.c: 44: {
  2781                           	
  2782  002512                     _LCD_Inst:		; BSR set to: ?
  2783                           
  2784                           	opt stack 28
  2785                           	line	45
  2786                           ;lcd_portd.c: 45: RD2 = 0;
  2787  002512  9483               	bcf	c:(31770/8),(31770)&7	;volatile
  2788                           	line	46
  2789                           ;lcd_portd.c: 46: PORTD = (PORTD & 0x0F) | (c & 
                                 0xF0);
  2790  002514  C10A  F10B         	movff	(LCD_Inst@c),??_LCD_Inst+0+0
  2791  002518  0EF0               	movlw	0F0h
  2792  00251A  0101               	movlb	1	; () banked
  2793  00251C  170B               	andwf	(??_LCD_Inst+0+0)&0ffh
  2794  00251E  5083               	movf	((c:3971)),c,w	;volatile
  2795  002520  0B0F               	andlw	low(0Fh)
  2796  002522  0101               	movlb	1	; () banked
  2797  002524  110B               	iorwf	(??_LCD_Inst+0+0)&0ffh,w
  2798  002526  6E83               	movwf	((c:3971)),c	;volatile
  2799                           	line	47
  2800                           ;lcd_portd.c: 47: LCD_Strobe();
  2801  002528  EC0B  F013         	call	_LCD_Strobe	;wreg free
  2802                           	line	48
  2803                           ;lcd_portd.c: 48: PORTD = (PORTD & 0x0F) | ((c<<
                                 4) & 0xF0);
  2804  00252C  C10A  F10B         	movff	(LCD_Inst@c),??_LCD_Inst+0+0
  2805  002530  0101               	movlb	1	; () banked
  2806  002532  3B0B               	swapf	(??_LCD_Inst+0+0)&0ffh
  2807  002534  0EF0               	movlw	(0ffh shl 4) & 0ffh
  2808  002536  170B               	andwf	(??_LCD_Inst+0+0)&0ffh
  2809  002538  0EF0               	movlw	0F0h
  2810  00253A  0101               	movlb	1	; () banked
  2811  00253C  170B               	andwf	(??_LCD_Inst+0+0)&0ffh
  2812  00253E  5083               	movf	((c:3971)),c,w	;volatile
  2813  002540  0B0F               	andlw	low(0Fh)
  2814  002542  0101               	movlb	1	; () banked
  2815  002544  110B               	iorwf	(??_LCD_Inst+0+0)&0ffh,w
  2816  002546  6E83               	movwf	((c:3971)),c	;volatile
  2817                           	line	49
  2818                           ;lcd_portd.c: 49: LCD_Strobe();
  2819  002548  EC0B  F013         	call	_LCD_Strobe	;wreg free
  2820                           	line	50
  2821                           ;lcd_portd.c: 50: Wait_ms(10);
  2822  00254C  0E0A               	movlw	low(0Ah)
  2823  00254E  0101               	movlb	1	; () banked
  2824  002550  0101               	movlb	1	; () banked
  2825  002552  6F0C               	movwf	((?_Wait_ms))&0ffh
  2826  002554  0E00               	movlw	high(0Ah)
  2827  002556  0101               	movlb	1	; () banked
  2828  002558  6F0D               	movwf	((?_Wait_ms+1))&0ffh
  2829  00255A  EC0F  F012         	call	_Wait_ms	;wreg free
  2830                           	line	51
  2831                           ;lcd_portd.c: 51: }
  2832  00255E                     l129:
  2833                           			; BSR set to: ?
  2834                           
  2835  00255E  0012               	return
  2836                           	opt stack 0
  2837                           GLOBAL __end_of_LCD_Inst
  2838  002560                     	__end_of_LCD_Inst:
  2839                           	FNSIZE	_LCD_Inst,1,1
  2840                           ; =============== function _LCD_Inst ends ======
                                 ======
  2841                           
  2842                           	signat	_LCD_Inst,4216
  2843                           	global	_LCD_Write
  2844                           	global	??_LCD_Write
  2845                           	global	?_LCD_Write
  2846                                   psect   text11,class=CODE,space=0,reloc=
                                 2
  2847                           
  2848                           	opt lm
  2849                           	file	"A:\OneDrive\School\College\Junior\Fa23\Em
                                 b Sys\c\hw10\timer1compare\lcd_portd.c"
  2850                           	line	62
  2851  000000                     	__size_of_LCD_Write	equ	__end_of_LCD_Write-_LCD
                                 _Write
  2852                           ;lcd_portd.c: 61: void LCD_Write(unsigned char c
                                 )
  2853                           ;lcd_portd.c: 62: {
  2854                           	
  2855  0025A4                     _LCD_Write:		; BSR set to: ?
  2856                           
  2857                           	opt stack 28
  2858                           	line	63
  2859  0025A4  8483               	bsf	c:(31770/8),(31770)&7	;volatile
  2860                           	line	64
  2861                           ;lcd_portd.c: 64: PORTD = (PORTD & 0x0F) | (c & 
                                 0xF0);
  2862  0025A6  C11A  F11B         	movff	(LCD_Write@c),??_LCD_Write+0+0
  2863  0025AA  0EF0               	movlw	0F0h
  2864  0025AC  0101               	movlb	1	; () banked
  2865  0025AE  171B               	andwf	(??_LCD_Write+0+0)&0ffh
  2866  0025B0  5083               	movf	((c:3971)),c,w	;volatile
  2867  0025B2  0B0F               	andlw	low(0Fh)
  2868  0025B4  0101               	movlb	1	; () banked
  2869  0025B6  111B               	iorwf	(??_LCD_Write+0+0)&0ffh,w
  2870  0025B8  6E83               	movwf	((c:3971)),c	;volatile
  2871                           	line	65
  2872                           ;lcd_portd.c: 65: LCD_Strobe();
  2873  0025BA  EC0B  F013         	call	_LCD_Strobe	;wreg free
  2874                           	line	66
  2875                           ;lcd_portd.c: 66: PORTD = (PORTD & 0x0F) | ((c<<
                                 4) & 0xF0);
  2876  0025BE  C11A  F11B         	movff	(LCD_Write@c),??_LCD_Write+0+0
  2877  0025C2  0101               	movlb	1	; () banked
  2878  0025C4  3B1B               	swapf	(??_LCD_Write+0+0)&0ffh
  2879  0025C6  0EF0               	movlw	(0ffh shl 4) & 0ffh
  2880  0025C8  171B               	andwf	(??_LCD_Write+0+0)&0ffh
  2881  0025CA  0EF0               	movlw	0F0h
  2882  0025CC  0101               	movlb	1	; () banked
  2883  0025CE  171B               	andwf	(??_LCD_Write+0+0)&0ffh
  2884  0025D0  5083               	movf	((c:3971)),c,w	;volatile
  2885  0025D2  0B0F               	andlw	low(0Fh)
  2886  0025D4  0101               	movlb	1	; () banked
  2887  0025D6  111B               	iorwf	(??_LCD_Write+0+0)&0ffh,w
  2888  0025D8  6E83               	movwf	((c:3971)),c	;volatile
  2889                           	line	67
  2890                           ;lcd_portd.c: 67: LCD_Strobe();
  2891  0025DA  EC0B  F013         	call	_LCD_Strobe	;wreg free
  2892                           	line	69
  2893                           ;lcd_portd.c: 69: }
  2894  0025DE                     l135:
  2895                           			; BSR set to: ?
  2896                           
  2897  0025DE  0012               	return
  2898                           	opt stack 0
  2899                           GLOBAL __end_of_LCD_Write
  2900  0025E0                     	__end_of_LCD_Write:
  2901                           	FNSIZE	_LCD_Write,1,1
  2902                           ; =============== function _LCD_Write ends =====
                                 =======
  2903                           
  2904                           	signat	_LCD_Write,4216
  2905                           	global	___almod
  2906                           	global	??___almod
  2907                           	global	?___almod
  2908                                   psect   text12,class=CODE,space=0,reloc=
                                 2
  2909                           
  2910                           	opt lm
  2911                           	file	"C:\Program Files (x86)\HI-TECH Software\P
                                 ICC-18\PRO\9.63\sources\almod.c"
  2912                           	line	5
  2913  000000                     	__size_of___almod	equ	__end_of___almod-___almod
  2914                           	
  2915  001BDC                     ___almod:		; BSR set to: ?
  2916                           
  2917                           	opt stack 28
  2918                           	line	8
  2919  001BDC  0101               	movlb	1	; () banked
  2920  001BDE  6F24               	movwf	(??___almod+2+0)&0ffh
  2921  001BE0  0E00               	movlw	low(0)
  2922  001BE2  0101               	movlb	1	; () banked
  2923  001BE4  0101               	movlb	1	; () banked
  2924  001BE6  6F22               	movwf	((___almod@sign))&0ffh
  2925  001BE8  0101               	movlb	1	; () banked
  2926  001BEA  5124               	movf	(??___almod+2+0)&0ffh,w
  2927                           	line	9
  2928  001BEC  0101               	movlb	1	; () banked
  2929  001BEE  0101               	movlb	1	; () banked
  2930  001BF0  AF1D               	btfss	((___almod@dividend+3))&0ffh,7
  2931  001BF2  D001               	goto	u3021
  2932  001BF4  D001               	goto	u3020
  2933  001BF6                     u3021:
  2934  001BF6  D018               	goto	l220
  2935  001BF8                     u3020:
  2936                           	line	10
  2937  001BF8  0101               	movlb	1	; () banked
  2938  001BFA  0101               	movlb	1	; () banked
  2939  001BFC  1F1D               	comf	((___almod@dividend+3))&0ffh
  2940  001BFE  0101               	movlb	1	; () banked
  2941  001C00  1F1C               	comf	((___almod@dividend+2))&0ffh
  2942  001C02  0101               	movlb	1	; () banked
  2943  001C04  1F1B               	comf	((___almod@dividend+1))&0ffh
  2944  001C06  0101               	movlb	1	; () banked
  2945  001C08  6D1A               	negf	((___almod@dividend))&0ffh
  2946  001C0A  0E00               	movlw	0
  2947  001C0C  0101               	movlb	1	; () banked
  2948  001C0E  231B               	addwfc	((___almod@dividend+1))&0ffh
  2949  001C10  0101               	movlb	1	; () banked
  2950  001C12  231C               	addwfc	((___almod@dividend+2))&0ffh
  2951  001C14  0101               	movlb	1	; () banked
  2952  001C16  231D               	addwfc	((___almod@dividend+3))&0ffh
  2953                           	line	11
  2954  001C18  0101               	movlb	1	; () banked
  2955  001C1A  6F24               	movwf	(??___almod+2+0)&0ffh
  2956  001C1C  0E01               	movlw	low(01h)
  2957  001C1E  0101               	movlb	1	; () banked
  2958  001C20  0101               	movlb	1	; () banked
  2959  001C22  6F22               	movwf	((___almod@sign))&0ffh
  2960  001C24  0101               	movlb	1	; () banked
  2961  001C26  5124               	movf	(??___almod+2+0)&0ffh,w
  2962                           	line	12
  2963                           	
  2964  001C28                     l220:		; BSR set to: ?
  2965                           
  2966                           	line	13
  2967  001C28  0101               	movlb	1	; () banked
  2968  001C2A  0101               	movlb	1	; () banked
  2969  001C2C  AF21               	btfss	((___almod@divisor+3))&0ffh,7
  2970  001C2E  D001               	goto	u3031
  2971  001C30  D001               	goto	u3030
  2972  001C32                     u3031:
  2973  001C32  D010               	goto	l221
  2974  001C34                     u3030:
  2975                           	line	14
  2976  001C34  0101               	movlb	1	; () banked
  2977  001C36  0101               	movlb	1	; () banked
  2978  001C38  1F21               	comf	((___almod@divisor+3))&0ffh
  2979  001C3A  0101               	movlb	1	; () banked
  2980  001C3C  1F20               	comf	((___almod@divisor+2))&0ffh
  2981  001C3E  0101               	movlb	1	; () banked
  2982  001C40  1F1F               	comf	((___almod@divisor+1))&0ffh
  2983  001C42  0101               	movlb	1	; () banked
  2984  001C44  6D1E               	negf	((___almod@divisor))&0ffh
  2985  001C46  0E00               	movlw	0
  2986  001C48  0101               	movlb	1	; () banked
  2987  001C4A  231F               	addwfc	((___almod@divisor+1))&0ffh
  2988  001C4C  0101               	movlb	1	; () banked
  2989  001C4E  2320               	addwfc	((___almod@divisor+2))&0ffh
  2990  001C50  0101               	movlb	1	; () banked
  2991  001C52  2321               	addwfc	((___almod@divisor+3))&0ffh
  2992                           	
  2993  001C54                     l221:		; BSR set to: ?
  2994                           
  2995                           	line	15
  2996  001C54  0101               	movlb	1	; () banked
  2997  001C56  5121               	movf	((___almod@divisor+3))&0ffh,w
  2998  001C58  111E               	iorwf ((___almod@divisor))&0ffh,w
  2999  001C5A  111F               	iorwf ((___almod@divisor+1))&0ffh,w
  3000  001C5C  1120               	iorwf ((___almod@divisor+2))&0ffh,w
  3001                           
  3002  001C5E  B4D8               	btfsc	status,2
  3003  001C60  D001               	goto	u3041
  3004  001C62  D001               	goto	u3040
  3005  001C64                     u3041:
  3006  001C64  D05E               	goto	l222
  3007  001C66                     u3040:
  3008                           	line	16
  3009  001C66  0101               	movlb	1	; () banked
  3010  001C68  6F24               	movwf	(??___almod+2+0)&0ffh
  3011  001C6A  0E01               	movlw	low(01h)
  3012  001C6C  0101               	movlb	1	; () banked
  3013  001C6E  0101               	movlb	1	; () banked
  3014  001C70  6F23               	movwf	((___almod@counter))&0ffh
  3015  001C72  0101               	movlb	1	; () banked
  3016  001C74  5124               	movf	(??___almod+2+0)&0ffh,w
  3017                           	line	17
  3018  001C76  D00D               	goto	l223
  3019                           	
  3020  001C78                     l224:		; BSR set to: ?
  3021                           
  3022                           	line	18
  3023  001C78  0101               	movlb	1	; () banked
  3024  001C7A  90D8               	bcf	status,0
  3025  001C7C  0101               	movlb	1	; () banked
  3026  001C7E  371E               	rlcf	((___almod@divisor))&0ffh
  3027  001C80  0101               	movlb	1	; () banked
  3028  001C82  371F               	rlcf	((___almod@divisor+1))&0ffh
  3029  001C84  0101               	movlb	1	; () banked
  3030  001C86  3720               	rlcf	((___almod@divisor+2))&0ffh
  3031  001C88  0101               	movlb	1	; () banked
  3032  001C8A  3721               	rlcf	((___almod@divisor+3))&0ffh
  3033                           	line	19
  3034  001C8C  0101               	movlb	1	; () banked
  3035  001C8E  0101               	movlb	1	; () banked
  3036  001C90  2B23               	incf	((___almod@counter))&0ffh
  3037                           	line	20
  3038                           	
  3039  001C92                     l223:		; BSR set to: ?
  3040                           
  3041                           	line	17
  3042  001C92  0101               	movlb	1	; () banked
  3043                           	
  3044  001C94  0101               	movlb	1	; () banked
  3045  001C96  AF21               	btfss	((___almod@divisor+3))&0ffh,(31)&7
  3046  001C98  D001               	goto	u3051
  3047  001C9A  D001               	goto	u3050
  3048  001C9C                     u3051:
  3049  001C9C  D7ED               	goto	l224
  3050  001C9E                     u3050:
  3051                           	
  3052  001C9E                     l225:		; BSR set to: ?
  3053                           
  3054                           	line	21
  3055                           	
  3056  001C9E                     l228:		; BSR set to: ?
  3057                           
  3058                           	line	22
  3059  001C9E  0101               	movlb	1	; () banked
  3060  001CA0  0101               	movlb	1	; () banked
  3061  001CA2  511E               	movf	((___almod@divisor))&0ffh,w
  3062  001CA4  0101               	movlb	1	; () banked
  3063  001CA6  0101               	movlb	1	; () banked
  3064  001CA8  5D1A               	subwf	((___almod@dividend))&0ffh,w
  3065  001CAA  0101               	movlb	1	; () banked
  3066  001CAC  0101               	movlb	1	; () banked
  3067  001CAE  511F               	movf	((___almod@divisor+1))&0ffh,w
  3068  001CB0  0101               	movlb	1	; () banked
  3069  001CB2  0101               	movlb	1	; () banked
  3070  001CB4  591B               	subwfb	((___almod@dividend+1))&0ffh,w
  3071  001CB6  0101               	movlb	1	; () banked
  3072  001CB8  0101               	movlb	1	; () banked
  3073  001CBA  5120               	movf	((___almod@divisor+2))&0ffh,w
  3074  001CBC  0101               	movlb	1	; () banked
  3075  001CBE  0101               	movlb	1	; () banked
  3076  001CC0  591C               	subwfb	((___almod@dividend+2))&0ffh,w
  3077  001CC2  0101               	movlb	1	; () banked
  3078  001CC4  0101               	movlb	1	; () banked
  3079  001CC6  5121               	movf	((___almod@divisor+3))&0ffh,w
  3080  001CC8  0101               	movlb	1	; () banked
  3081  001CCA  0101               	movlb	1	; () banked
  3082  001CCC  591D               	subwfb	((___almod@dividend+3))&0ffh,w
  3083  001CCE  A0D8               	btfss	status,0
  3084  001CD0  D001               	goto	u3061
  3085  001CD2  D001               	goto	u3060
  3086  001CD4                     u3061:
  3087  001CD4  D018               	goto	l229
  3088  001CD6                     u3060:
  3089                           	line	23
  3090  001CD6  0101               	movlb	1	; () banked
  3091  001CD8  0101               	movlb	1	; () banked
  3092  001CDA  511E               	movf	((___almod@divisor))&0ffh,w
  3093  001CDC  0101               	movlb	1	; () banked
  3094  001CDE  0101               	movlb	1	; () banked
  3095  001CE0  5F1A               	subwf	((___almod@dividend))&0ffh
  3096  001CE2  0101               	movlb	1	; () banked
  3097  001CE4  0101               	movlb	1	; () banked
  3098  001CE6  511F               	movf	((___almod@divisor+1))&0ffh,w
  3099  001CE8  0101               	movlb	1	; () banked
  3100  001CEA  0101               	movlb	1	; () banked
  3101  001CEC  5B1B               	subwfb	((___almod@dividend+1))&0ffh
  3102  001CEE  0101               	movlb	1	; () banked
  3103  001CF0  0101               	movlb	1	; () banked
  3104  001CF2  5120               	movf	((___almod@divisor+2))&0ffh,w
  3105  001CF4  0101               	movlb	1	; () banked
  3106  001CF6  0101               	movlb	1	; () banked
  3107  001CF8  5B1C               	subwfb	((___almod@dividend+2))&0ffh
  3108  001CFA  0101               	movlb	1	; () banked
  3109  001CFC  0101               	movlb	1	; () banked
  3110  001CFE  5121               	movf	((___almod@divisor+3))&0ffh,w
  3111  001D00  0101               	movlb	1	; () banked
  3112  001D02  0101               	movlb	1	; () banked
  3113  001D04  5B1D               	subwfb	((___almod@dividend+3))&0ffh
  3114                           	
  3115  001D06                     l229:		; BSR set to: ?
  3116                           
  3117                           	line	24
  3118  001D06  0101               	movlb	1	; () banked
  3119  001D08  90D8               	bcf	status,0
  3120  001D0A  0101               	movlb	1	; () banked
  3121  001D0C  3321               	rrcf	((___almod@divisor+3))&0ffh
  3122  001D0E  0101               	movlb	1	; () banked
  3123  001D10  3320               	rrcf	((___almod@divisor+2))&0ffh
  3124  001D12  0101               	movlb	1	; () banked
  3125  001D14  331F               	rrcf	((___almod@divisor+1))&0ffh
  3126  001D16  0101               	movlb	1	; () banked
  3127  001D18  331E               	rrcf	((___almod@divisor))&0ffh
  3128                           	line	25
  3129  001D1A  0101               	movlb	1	; () banked
  3130  001D1C  0101               	movlb	1	; () banked
  3131  001D1E  2F23               	decfsz	((___almod@counter))&0ffh
  3132                           	
  3133  001D20  D7BE               	goto	l228
  3134                           	
  3135  001D22                     l227:		; BSR set to: ?
  3136                           
  3137                           	line	26
  3138                           	
  3139  001D22                     l222:		; BSR set to: ?
  3140                           
  3141                           	line	27
  3142  001D22  0101               	movlb	1	; () banked
  3143  001D24  0101               	movlb	1	; () banked
  3144  001D26  5122               	movf	((___almod@sign))&0ffh,w
  3145  001D28  B4D8               	btfsc	status,2
  3146  001D2A  D001               	goto	u3071
  3147  001D2C  D001               	goto	u3070
  3148  001D2E                     u3071:
  3149  001D2E  D010               	goto	l230
  3150  001D30                     u3070:
  3151                           	line	28
  3152  001D30  0101               	movlb	1	; () banked
  3153  001D32  0101               	movlb	1	; () banked
  3154  001D34  1F1D               	comf	((___almod@dividend+3))&0ffh
  3155  001D36  0101               	movlb	1	; () banked
  3156  001D38  1F1C               	comf	((___almod@dividend+2))&0ffh
  3157  001D3A  0101               	movlb	1	; () banked
  3158  001D3C  1F1B               	comf	((___almod@dividend+1))&0ffh
  3159  001D3E  0101               	movlb	1	; () banked
  3160  001D40  6D1A               	negf	((___almod@dividend))&0ffh
  3161  001D42  0E00               	movlw	0
  3162  001D44  0101               	movlb	1	; () banked
  3163  001D46  231B               	addwfc	((___almod@dividend+1))&0ffh
  3164  001D48  0101               	movlb	1	; () banked
  3165  001D4A  231C               	addwfc	((___almod@dividend+2))&0ffh
  3166  001D4C  0101               	movlb	1	; () banked
  3167  001D4E  231D               	addwfc	((___almod@dividend+3))&0ffh
  3168                           	
  3169  001D50                     l230:		; BSR set to: ?
  3170                           
  3171                           	line	29
  3172  001D50  C11A  F11A         	movff	(___almod@dividend),(?___almod)
  3173  001D54  C11B  F11B         	movff	(___almod@dividend+1),(?___almod+1)
  3174  001D58  C11C  F11C         	movff	(___almod@dividend+2),(?___almod+2)
  3175  001D5C  C11D  F11D         	movff	(___almod@dividend+3),(?___almod+3)
  3176  001D60  D000               	goto	l219
  3177                           	line	30
  3178  001D62                     l219:
  3179                           			; BSR set to: ?
  3180                           
  3181  001D62  0012               	return
  3182                           	opt stack 0
  3183                           GLOBAL __end_of___almod
  3184  001D64                     	__end_of___almod:
  3185                           	FNSIZE	___almod,3,8
  3186                           ; =============== function ___almod ends =======
                                 =====
  3187                           
  3188                           	signat	___almod,8316
  3189                           	global	___aldiv
  3190                           	global	??___aldiv
  3191                           	global	?___aldiv
  3192                                   psect   text13,class=CODE,space=0,reloc=
                                 2
  3193                           
  3194                           	opt lm
  3195                           	file	"C:\Program Files (x86)\HI-TECH Software\P
                                 ICC-18\PRO\9.63\sources\aldiv.c"
  3196                           	line	5
  3197  000000                     	__size_of___aldiv	equ	__end_of___aldiv-___aldiv
  3198                           	
  3199  0016D2                     ___aldiv:		; BSR set to: ?
  3200                           
  3201                           	opt stack 28
  3202                           	line	9
  3203  0016D2  0101               	movlb	1	; () banked
  3204  0016D4  6F28               	movwf	(??___aldiv+6+0)&0ffh
  3205  0016D6  0E00               	movlw	low(0)
  3206  0016D8  0101               	movlb	1	; () banked
  3207  0016DA  0101               	movlb	1	; () banked
  3208  0016DC  6F23               	movwf	((___aldiv@sign))&0ffh
  3209  0016DE  0101               	movlb	1	; () banked
  3210  0016E0  5128               	movf	(??___aldiv+6+0)&0ffh,w
  3211                           	line	10
  3212  0016E2  0101               	movlb	1	; () banked
  3213  0016E4  0101               	movlb	1	; () banked
  3214  0016E6  AF21               	btfss	((___aldiv@divisor+3))&0ffh,7
  3215  0016E8  D001               	goto	u3081
  3216  0016EA  D001               	goto	u3080
  3217  0016EC                     u3081:
  3218  0016EC  D018               	goto	l208
  3219  0016EE                     u3080:
  3220                           	line	11
  3221  0016EE  0101               	movlb	1	; () banked
  3222  0016F0  0101               	movlb	1	; () banked
  3223  0016F2  1F21               	comf	((___aldiv@divisor+3))&0ffh
  3224  0016F4  0101               	movlb	1	; () banked
  3225  0016F6  1F20               	comf	((___aldiv@divisor+2))&0ffh
  3226  0016F8  0101               	movlb	1	; () banked
  3227  0016FA  1F1F               	comf	((___aldiv@divisor+1))&0ffh
  3228  0016FC  0101               	movlb	1	; () banked
  3229  0016FE  6D1E               	negf	((___aldiv@divisor))&0ffh
  3230  001700  0E00               	movlw	0
  3231  001702  0101               	movlb	1	; () banked
  3232  001704  231F               	addwfc	((___aldiv@divisor+1))&0ffh
  3233  001706  0101               	movlb	1	; () banked
  3234  001708  2320               	addwfc	((___aldiv@divisor+2))&0ffh
  3235  00170A  0101               	movlb	1	; () banked
  3236  00170C  2321               	addwfc	((___aldiv@divisor+3))&0ffh
  3237                           	line	12
  3238  00170E  0101               	movlb	1	; () banked
  3239  001710  6F28               	movwf	(??___aldiv+6+0)&0ffh
  3240  001712  0E01               	movlw	low(01h)
  3241  001714  0101               	movlb	1	; () banked
  3242  001716  0101               	movlb	1	; () banked
  3243  001718  6F23               	movwf	((___aldiv@sign))&0ffh
  3244  00171A  0101               	movlb	1	; () banked
  3245  00171C  5128               	movf	(??___aldiv+6+0)&0ffh,w
  3246                           	line	13
  3247                           	
  3248  00171E                     l208:		; BSR set to: ?
  3249                           
  3250                           	line	14
  3251  00171E  0101               	movlb	1	; () banked
  3252  001720  0101               	movlb	1	; () banked
  3253  001722  AF1D               	btfss	((___aldiv@dividend+3))&0ffh,7
  3254  001724  D001               	goto	u3091
  3255  001726  D001               	goto	u3090
  3256  001728                     u3091:
  3257  001728  D014               	goto	l209
  3258  00172A                     u3090:
  3259                           	line	15
  3260  00172A  0101               	movlb	1	; () banked
  3261  00172C  0101               	movlb	1	; () banked
  3262  00172E  1F1D               	comf	((___aldiv@dividend+3))&0ffh
  3263  001730  0101               	movlb	1	; () banked
  3264  001732  1F1C               	comf	((___aldiv@dividend+2))&0ffh
  3265  001734  0101               	movlb	1	; () banked
  3266  001736  1F1B               	comf	((___aldiv@dividend+1))&0ffh
  3267  001738  0101               	movlb	1	; () banked
  3268  00173A  6D1A               	negf	((___aldiv@dividend))&0ffh
  3269  00173C  0E00               	movlw	0
  3270  00173E  0101               	movlb	1	; () banked
  3271  001740  231B               	addwfc	((___aldiv@dividend+1))&0ffh
  3272  001742  0101               	movlb	1	; () banked
  3273  001744  231C               	addwfc	((___aldiv@dividend+2))&0ffh
  3274  001746  0101               	movlb	1	; () banked
  3275  001748  231D               	addwfc	((___aldiv@dividend+3))&0ffh
  3276                           	line	16
  3277  00174A  0E01               	movlw	(01h)&0ffh
  3278  00174C  0101               	movlb	1	; () banked
  3279  00174E  0101               	movlb	1	; () banked
  3280  001750  1B23               	xorwf	((___aldiv@sign))&0ffh
  3281                           	line	17
  3282                           	
  3283  001752                     l209:		; BSR set to: ?
  3284                           
  3285                           	line	18
  3286  001752  0E00               	movlw	low(0)
  3287  001754  0101               	movlb	1	; () banked
  3288  001756  0101               	movlb	1	; () banked
  3289  001758  6F24               	movwf	((___aldiv@quotient))&0ffh
  3290  00175A  0E00               	movlw	high(0)
  3291  00175C  0101               	movlb	1	; () banked
  3292  00175E  6F25               	movwf	((___aldiv@quotient+1))&0ffh
  3293  001760  0E00               	movlw	low highword(0)
  3294  001762  0101               	movlb	1	; () banked
  3295  001764  6F26               	movwf	((___aldiv@quotient+2))&0ffh
  3296  001766  0E00               	movlw	high highword(0)
  3297  001768  0101               	movlb	1	; () banked
  3298  00176A  6F27               	movwf	((___aldiv@quotient+3))&0ffh
  3299                           	line	19
  3300  00176C  0101               	movlb	1	; () banked
  3301  00176E  5121               	movf	((___aldiv@divisor+3))&0ffh,w
  3302  001770  111E               	iorwf ((___aldiv@divisor))&0ffh,w
  3303  001772  111F               	iorwf ((___aldiv@divisor+1))&0ffh,w
  3304  001774  1120               	iorwf ((___aldiv@divisor+2))&0ffh,w
  3305                           
  3306  001776  B4D8               	btfsc	status,2
  3307  001778  D001               	goto	u3101
  3308  00177A  D001               	goto	u3100
  3309  00177C                     u3101:
  3310  00177C  D06B               	goto	l210
  3311  00177E                     u3100:
  3312                           	line	20
  3313  00177E  0101               	movlb	1	; () banked
  3314  001780  6F28               	movwf	(??___aldiv+6+0)&0ffh
  3315  001782  0E01               	movlw	low(01h)
  3316  001784  0101               	movlb	1	; () banked
  3317  001786  0101               	movlb	1	; () banked
  3318  001788  6F22               	movwf	((___aldiv@counter))&0ffh
  3319  00178A  0101               	movlb	1	; () banked
  3320  00178C  5128               	movf	(??___aldiv+6+0)&0ffh,w
  3321                           	line	21
  3322  00178E  D00D               	goto	l211
  3323                           	
  3324  001790                     l212:		; BSR set to: ?
  3325                           
  3326                           	line	22
  3327  001790  0101               	movlb	1	; () banked
  3328  001792  90D8               	bcf	status,0
  3329  001794  0101               	movlb	1	; () banked
  3330  001796  371E               	rlcf	((___aldiv@divisor))&0ffh
  3331  001798  0101               	movlb	1	; () banked
  3332  00179A  371F               	rlcf	((___aldiv@divisor+1))&0ffh
  3333  00179C  0101               	movlb	1	; () banked
  3334  00179E  3720               	rlcf	((___aldiv@divisor+2))&0ffh
  3335  0017A0  0101               	movlb	1	; () banked
  3336  0017A2  3721               	rlcf	((___aldiv@divisor+3))&0ffh
  3337                           	line	23
  3338  0017A4  0101               	movlb	1	; () banked
  3339  0017A6  0101               	movlb	1	; () banked
  3340  0017A8  2B22               	incf	((___aldiv@counter))&0ffh
  3341                           	line	24
  3342                           	
  3343  0017AA                     l211:		; BSR set to: ?
  3344                           
  3345                           	line	21
  3346  0017AA  0101               	movlb	1	; () banked
  3347                           	
  3348  0017AC  0101               	movlb	1	; () banked
  3349  0017AE  AF21               	btfss	((___aldiv@divisor+3))&0ffh,(31)&7
  3350  0017B0  D001               	goto	u3111
  3351  0017B2  D001               	goto	u3110
  3352  0017B4                     u3111:
  3353  0017B4  D7ED               	goto	l212
  3354  0017B6                     u3110:
  3355                           	
  3356  0017B6                     l213:		; BSR set to: ?
  3357                           
  3358                           	line	25
  3359                           	
  3360  0017B6                     l216:		; BSR set to: ?
  3361                           
  3362                           	line	26
  3363  0017B6  0101               	movlb	1	; () banked
  3364  0017B8  90D8               	bcf	status,0
  3365  0017BA  0101               	movlb	1	; () banked
  3366  0017BC  3724               	rlcf	((___aldiv@quotient))&0ffh
  3367  0017BE  0101               	movlb	1	; () banked
  3368  0017C0  3725               	rlcf	((___aldiv@quotient+1))&0ffh
  3369  0017C2  0101               	movlb	1	; () banked
  3370  0017C4  3726               	rlcf	((___aldiv@quotient+2))&0ffh
  3371  0017C6  0101               	movlb	1	; () banked
  3372  0017C8  3727               	rlcf	((___aldiv@quotient+3))&0ffh
  3373                           	line	27
  3374  0017CA  0101               	movlb	1	; () banked
  3375  0017CC  0101               	movlb	1	; () banked
  3376  0017CE  511E               	movf	((___aldiv@divisor))&0ffh,w
  3377  0017D0  0101               	movlb	1	; () banked
  3378  0017D2  0101               	movlb	1	; () banked
  3379  0017D4  5D1A               	subwf	((___aldiv@dividend))&0ffh,w
  3380  0017D6  0101               	movlb	1	; () banked
  3381  0017D8  0101               	movlb	1	; () banked
  3382  0017DA  511F               	movf	((___aldiv@divisor+1))&0ffh,w
  3383  0017DC  0101               	movlb	1	; () banked
  3384  0017DE  0101               	movlb	1	; () banked
  3385  0017E0  591B               	subwfb	((___aldiv@dividend+1))&0ffh,w
  3386  0017E2  0101               	movlb	1	; () banked
  3387  0017E4  0101               	movlb	1	; () banked
  3388  0017E6  5120               	movf	((___aldiv@divisor+2))&0ffh,w
  3389  0017E8  0101               	movlb	1	; () banked
  3390  0017EA  0101               	movlb	1	; () banked
  3391  0017EC  591C               	subwfb	((___aldiv@dividend+2))&0ffh,w
  3392  0017EE  0101               	movlb	1	; () banked
  3393  0017F0  0101               	movlb	1	; () banked
  3394  0017F2  5121               	movf	((___aldiv@divisor+3))&0ffh,w
  3395  0017F4  0101               	movlb	1	; () banked
  3396  0017F6  0101               	movlb	1	; () banked
  3397  0017F8  591D               	subwfb	((___aldiv@dividend+3))&0ffh,w
  3398  0017FA  A0D8               	btfss	status,0
  3399  0017FC  D001               	goto	u3121
  3400  0017FE  D001               	goto	u3120
  3401  001800                     u3121:
  3402  001800  D01B               	goto	l217
  3403  001802                     u3120:
  3404                           	line	28
  3405  001802  0101               	movlb	1	; () banked
  3406  001804  0101               	movlb	1	; () banked
  3407  001806  511E               	movf	((___aldiv@divisor))&0ffh,w
  3408  001808  0101               	movlb	1	; () banked
  3409  00180A  0101               	movlb	1	; () banked
  3410  00180C  5F1A               	subwf	((___aldiv@dividend))&0ffh
  3411  00180E  0101               	movlb	1	; () banked
  3412  001810  0101               	movlb	1	; () banked
  3413  001812  511F               	movf	((___aldiv@divisor+1))&0ffh,w
  3414  001814  0101               	movlb	1	; () banked
  3415  001816  0101               	movlb	1	; () banked
  3416  001818  5B1B               	subwfb	((___aldiv@dividend+1))&0ffh
  3417  00181A  0101               	movlb	1	; () banked
  3418  00181C  0101               	movlb	1	; () banked
  3419  00181E  5120               	movf	((___aldiv@divisor+2))&0ffh,w
  3420  001820  0101               	movlb	1	; () banked
  3421  001822  0101               	movlb	1	; () banked
  3422  001824  5B1C               	subwfb	((___aldiv@dividend+2))&0ffh
  3423  001826  0101               	movlb	1	; () banked
  3424  001828  0101               	movlb	1	; () banked
  3425  00182A  5121               	movf	((___aldiv@divisor+3))&0ffh,w
  3426  00182C  0101               	movlb	1	; () banked
  3427  00182E  0101               	movlb	1	; () banked
  3428  001830  5B1D               	subwfb	((___aldiv@dividend+3))&0ffh
  3429                           	line	29
  3430  001832  0101               	movlb	1	; () banked
  3431  001834  0101               	movlb	1	; () banked
  3432  001836  8124               	bsf	(0+(0/8)+(___aldiv@quotient))&0ffh,(0)&7
  3433                           	line	30
  3434                           	
  3435  001838                     l217:		; BSR set to: ?
  3436                           
  3437                           	line	31
  3438  001838  0101               	movlb	1	; () banked
  3439  00183A  90D8               	bcf	status,0
  3440  00183C  0101               	movlb	1	; () banked
  3441  00183E  3321               	rrcf	((___aldiv@divisor+3))&0ffh
  3442  001840  0101               	movlb	1	; () banked
  3443  001842  3320               	rrcf	((___aldiv@divisor+2))&0ffh
  3444  001844  0101               	movlb	1	; () banked
  3445  001846  331F               	rrcf	((___aldiv@divisor+1))&0ffh
  3446  001848  0101               	movlb	1	; () banked
  3447  00184A  331E               	rrcf	((___aldiv@divisor))&0ffh
  3448                           	line	32
  3449  00184C  0101               	movlb	1	; () banked
  3450  00184E  0101               	movlb	1	; () banked
  3451  001850  2F22               	decfsz	((___aldiv@counter))&0ffh
  3452                           	
  3453  001852  D7B1               	goto	l216
  3454                           	
  3455  001854                     l215:		; BSR set to: ?
  3456                           
  3457                           	line	33
  3458                           	
  3459  001854                     l210:		; BSR set to: ?
  3460                           
  3461                           	line	34
  3462  001854  0101               	movlb	1	; () banked
  3463  001856  0101               	movlb	1	; () banked
  3464  001858  5123               	movf	((___aldiv@sign))&0ffh,w
  3465  00185A  B4D8               	btfsc	status,2
  3466  00185C  D001               	goto	u3131
  3467  00185E  D001               	goto	u3130
  3468  001860                     u3131:
  3469  001860  D010               	goto	l218
  3470  001862                     u3130:
  3471                           	line	35
  3472  001862  0101               	movlb	1	; () banked
  3473  001864  0101               	movlb	1	; () banked
  3474  001866  1F27               	comf	((___aldiv@quotient+3))&0ffh
  3475  001868  0101               	movlb	1	; () banked
  3476  00186A  1F26               	comf	((___aldiv@quotient+2))&0ffh
  3477  00186C  0101               	movlb	1	; () banked
  3478  00186E  1F25               	comf	((___aldiv@quotient+1))&0ffh
  3479  001870  0101               	movlb	1	; () banked
  3480  001872  6D24               	negf	((___aldiv@quotient))&0ffh
  3481  001874  0E00               	movlw	0
  3482  001876  0101               	movlb	1	; () banked
  3483  001878  2325               	addwfc	((___aldiv@quotient+1))&0ffh
  3484  00187A  0101               	movlb	1	; () banked
  3485  00187C  2326               	addwfc	((___aldiv@quotient+2))&0ffh
  3486  00187E  0101               	movlb	1	; () banked
  3487  001880  2327               	addwfc	((___aldiv@quotient+3))&0ffh
  3488                           	
  3489  001882                     l218:		; BSR set to: ?
  3490                           
  3491                           	line	36
  3492  001882  C124  F11A         	movff	(___aldiv@quotient),(?___aldiv)
  3493  001886  C125  F11B         	movff	(___aldiv@quotient+1),(?___aldiv+1)
  3494  00188A  C126  F11C         	movff	(___aldiv@quotient+2),(?___aldiv+2)
  3495  00188E  C127  F11D         	movff	(___aldiv@quotient+3),(?___aldiv+3)
  3496  001892  D000               	goto	l207
  3497                           	line	37
  3498  001894                     l207:
  3499                           			; BSR set to: ?
  3500                           
  3501  001894  0012               	return
  3502                           	opt stack 0
  3503                           GLOBAL __end_of___aldiv
  3504  001896                     	__end_of___aldiv:
  3505                           	FNSIZE	___aldiv,7,8
  3506                           ; =============== function ___aldiv ends =======
                                 =====
  3507                           
  3508                           	signat	___aldiv,8316
  3509                           	global	_Wait_ms
  3510                           	global	??_Wait_ms
  3511                           	global	?_Wait_ms
  3512                                   psect   text14,class=CODE,space=0,reloc=
                                 2
  3513                           
  3514                           	opt lm
  3515                           	file	"A:\OneDrive\School\College\Junior\Fa23\Em
                                 b Sys\c\hw10\timer1compare\lcd_portd.c"
  3516                           	line	16
  3517  000000                     	__size_of_Wait_ms	equ	__end_of_Wait_ms-_Wait_ms
  3518                           ;lcd_portd.c: 15: void Wait_ms(unsigned int X)
  3519                           ;lcd_portd.c: 16: {
  3520                           	
  3521  00241E                     _Wait_ms:		; BSR set to: ?
  3522                           
  3523                           	opt stack 27
  3524                           	line	19
  3525                           ;lcd_portd.c: 17: unsigned int i, j;
  3526                           ;lcd_portd.c: 19: for (i=0; i<X; i++)
  3527  00241E  0E00               	movlw	low(0)
  3528  002420  0101               	movlb	1	; () banked
  3529  002422  0101               	movlb	1	; () banked
  3530  002424  6F0E               	movwf	((Wait_ms@i))&0ffh
  3531  002426  0E00               	movlw	high(0)
  3532  002428  0101               	movlb	1	; () banked
  3533  00242A  6F0F               	movwf	((Wait_ms@i+1))&0ffh
  3534  00242C  D026               	goto	l120
  3535                           	line	20
  3536                           	
  3537  00242E                     l117:		; BSR set to: ?
  3538                           
  3539                           ;lcd_portd.c: 20: for (j=0; j<617; j++);
  3540  00242E  0E00               	movlw	low(0)
  3541  002430  0101               	movlb	1	; () banked
  3542  002432  0101               	movlb	1	; () banked
  3543  002434  6F10               	movwf	((Wait_ms@j))&0ffh
  3544  002436  0E00               	movlw	high(0)
  3545  002438  0101               	movlb	1	; () banked
  3546  00243A  6F11               	movwf	((Wait_ms@j+1))&0ffh
  3547  00243C  0E69               	movlw	069h
  3548  00243E  0101               	movlb	1	; () banked
  3549  002440  0101               	movlb	1	; () banked
  3550  002442  5D10               	subwf	((Wait_ms@j))&0ffh,w
  3551  002444  0E02               	movlw	02h
  3552  002446  0101               	movlb	1	; () banked
  3553  002448  5911               	subwfb	((Wait_ms@j+1))&0ffh,w
  3554  00244A  A0D8               	btfss	status,0
  3555  00244C  D001               	goto	u3141
  3556  00244E  D001               	goto	u3140
  3557  002450                     u3141:
  3558  002450  D001               	goto	l121
  3559  002452                     u3140:
  3560  002452  D00F               	goto	l122
  3561                           	
  3562  002454                     l121:		; BSR set to: ?
  3563                           
  3564  002454  0101               	movlb	1	; () banked
  3565  002456  0101               	movlb	1	; () banked
  3566  002458  4B10               	infsnz	((Wait_ms@j))&0ffh
  3567  00245A  2B11               	incf	((Wait_ms@j+1))&0ffh
  3568  00245C  0E69               	movlw	069h
  3569  00245E  0101               	movlb	1	; () banked
  3570  002460  0101               	movlb	1	; () banked
  3571  002462  5D10               	subwf	((Wait_ms@j))&0ffh,w
  3572  002464  0E02               	movlw	02h
  3573  002466  0101               	movlb	1	; () banked
  3574  002468  5911               	subwfb	((Wait_ms@j+1))&0ffh,w
  3575  00246A  A0D8               	btfss	status,0
  3576  00246C  D001               	goto	u3151
  3577  00246E  D001               	goto	u3150
  3578  002470                     u3151:
  3579  002470  D7F1               	goto	l121
  3580  002472                     u3150:
  3581                           	
  3582  002472                     l122:		; BSR set to: ?
  3583                           
  3584                           	line	19
  3585  002472  0101               	movlb	1	; () banked
  3586  002474  0101               	movlb	1	; () banked
  3587  002476  4B0E               	infsnz	((Wait_ms@i))&0ffh
  3588  002478  2B0F               	incf	((Wait_ms@i+1))&0ffh
  3589                           	
  3590  00247A                     l120:		; BSR set to: ?
  3591                           
  3592  00247A  0101               	movlb	1	; () banked
  3593  00247C  0101               	movlb	1	; () banked
  3594  00247E  510C               	movf	((Wait_ms@X))&0ffh,w
  3595  002480  0101               	movlb	1	; () banked
  3596  002482  0101               	movlb	1	; () banked
  3597  002484  5D0E               	subwf	((Wait_ms@i))&0ffh,w
  3598  002486  0101               	movlb	1	; () banked
  3599  002488  0101               	movlb	1	; () banked
  3600  00248A  510D               	movf	((Wait_ms@X+1))&0ffh,w
  3601  00248C  0101               	movlb	1	; () banked
  3602  00248E  0101               	movlb	1	; () banked
  3603  002490  590F               	subwfb	((Wait_ms@i+1))&0ffh,w
  3604  002492  A0D8               	btfss	status,0
  3605  002494  D001               	goto	u3161
  3606  002496  D001               	goto	u3160
  3607  002498                     u3161:
  3608  002498  D7CA               	goto	l117
  3609  00249A                     u3160:
  3610                           	
  3611  00249A                     l118:		; BSR set to: ?
  3612                           
  3613                           	line	21
  3614                           ;lcd_portd.c: 21: }
  3615  00249A                     l116:
  3616                           			; BSR set to: ?
  3617                           
  3618  00249A  0012               	return
  3619                           	opt stack 0
  3620                           GLOBAL __end_of_Wait_ms
  3621  00249C                     	__end_of_Wait_ms:
  3622                           	FNSIZE	_Wait_ms,4,2
  3623                           ; =============== function _Wait_ms ends =======
                                 =====
  3624                           
  3625                           	signat	_Wait_ms,4216
  3626                           	global	_LCD_Strobe
  3627                           	global	??_LCD_Strobe
  3628                           	global	?_LCD_Strobe
  3629                                   psect   text15,class=CODE,space=0,reloc=
                                 2
  3630                           
  3631                           	opt lm
  3632                           	file	"A:\OneDrive\School\College\Junior\Fa23\Em
                                 b Sys\c\hw10\timer1compare\lcd_portd.c"
  3633                           	line	32
  3634  000000                     	__size_of_LCD_Strobe	equ	__end_of_LCD_Strobe-_L
                                 CD_Strobe
  3635                           ;lcd_portd.c: 31: void LCD_Strobe(void)
  3636                           ;lcd_portd.c: 32: {
  3637                           	
  3638  002616                     _LCD_Strobe:		; BSR set to: ?
  3639                           
  3640                           	opt stack 27
  3641                           	line	33
  3642  002616  9683               	bcf	c:(31771/8),(31771)&7	;volatile
  3643                           	line	34
  3644                           ;lcd_portd.c: 34: LCD_Pause();
  3645  002618  ECF0  F012         	call	_LCD_Pause	;wreg free
  3646                           	line	35
  3647                           ;lcd_portd.c: 35: RD3 = 1;
  3648  00261C  8683               	bsf	c:(31771/8),(31771)&7	;volatile
  3649                           	line	36
  3650                           ;lcd_portd.c: 36: LCD_Pause();
  3651  00261E  ECF0  F012         	call	_LCD_Pause	;wreg free
  3652                           	line	37
  3653                           ;lcd_portd.c: 37: RD3 = 0;
  3654  002622  9683               	bcf	c:(31771/8),(31771)&7	;volatile
  3655                           	line	38
  3656                           ;lcd_portd.c: 38: LCD_Pause();
  3657  002624  ECF0  F012         	call	_LCD_Pause	;wreg free
  3658                           	line	39
  3659                           ;lcd_portd.c: 39: }
  3660  002628                     l128:
  3661                           			; BSR set to: ?
  3662                           
  3663  002628  0012               	return
  3664                           	opt stack 0
  3665                           GLOBAL __end_of_LCD_Strobe
  3666  00262A                     	__end_of_LCD_Strobe:
  3667                           	FNSIZE	_LCD_Strobe,0,0
  3668                           ; =============== function _LCD_Strobe ends ====
                                 ========
  3669                           
  3670                           	signat	_LCD_Strobe,88
  3671                           	global	___ftunpack
  3672                           	global	??___ftunpack
  3673                           	global	?___ftunpack
  3674                                   psect   text16,class=CODE,space=0,reloc=
                                 2
  3675                           
  3676                           	opt lm
  3677                           	file	"C:\Program Files (x86)\HI-TECH Software\P
                                 ICC-18\PRO\9.63\sources\float.c"
  3678                           	line	13
  3679  000000                     	__size_of___ftunpack	equ	__end_of___ftunpack-__
                                 _ftunpack
  3680                           	
  3681  00225E                     ___ftunpack:		; BSR set to: ?
  3682                           
  3683                           	opt stack 27
  3684                           	line	16
  3685  00225E  C11A  FFE9         	movff	(___ftunpack@arg),fsr0l
  3686  002262  C11B  FFEA         	movff	(___ftunpack@arg+1),fsr0h
  3687  002266  0E01               	movlw	1
  3688  002268  34EB               	rlcf	plusw0,w
  3689  00226A  0E02               	movlw	2
  3690  00226C  34EB               	rlcf	plusw0,w
  3691                           
  3692  00226E  0101               	movlb	1	; () banked
  3693  002270  0101               	movlb	1	; () banked
  3694  002272  6F1E               	movwf	((___ftunpack@sign))&0ffh
  3695  002274  C11C  FFE9         	movff	(___ftunpack@exp),fsr0l
  3696  002278  C11D  FFEA         	movff	(___ftunpack@exp+1),fsr0h
  3697  00227C  0101               	movlb	1	; () banked
  3698  00227E  C11E  FFEF         	movff	(___ftunpack@sign),indf0
  3699                           
  3700                           	line	17
  3701  002282  0101               	movlb	1	; () banked
  3702  002284  0101               	movlb	1	; () banked
  3703  002286  671E               	tstfsz	((___ftunpack@sign))&0ffh
  3704  002288  D001               	goto	u3171
  3705  00228A  D001               	goto	u3170
  3706  00228C                     u3171:
  3707  00228C  D00D               	goto	l349
  3708  00228E                     u3170:
  3709                           	line	18
  3710  00228E  C11A  FFE9         	movff	(___ftunpack@arg),fsr0l
  3711  002292  C11B  FFEA         	movff	(___ftunpack@arg+1),fsr0h
  3712  002296  0E00               	movlw	low(0)
  3713  002298  6EEE               	movwf	postinc0
  3714  00229A  0E00               	movlw	high(0)
  3715  00229C  6EEE               	movwf	postinc0
  3716  00229E  0E00               	movlw	low highword(0)
  3717  0022A0  6EED               	movwf	postdec0
  3718  0022A2  52ED               	movf	postdec0
  3719                           	line	19
  3720  0022A4  0E00               	movlw	(0)&0ffh
  3721  0022A6  D02F               	goto	l348
  3722                           	line	20
  3723                           	
  3724  0022A8                     l349:		; BSR set to: ?
  3725                           
  3726                           	line	21
  3727  0022A8  0101               	movlb	1	; () banked
  3728  0022AA  6F1F               	movwf	(??___ftunpack+1+0)&0ffh
  3729  0022AC  0E00               	movlw	low(0)
  3730  0022AE  0101               	movlb	1	; () banked
  3731  0022B0  0101               	movlb	1	; () banked
  3732  0022B2  6F1E               	movwf	((___ftunpack@sign))&0ffh
  3733  0022B4  0101               	movlb	1	; () banked
  3734  0022B6  511F               	movf	(??___ftunpack+1+0)&0ffh,w
  3735                           	line	22
  3736  0022B8  C11A  FFE9         	movff	(___ftunpack@arg),fsr0l
  3737  0022BC  C11B  FFEA         	movff	(___ftunpack@arg+1),fsr0h
  3738  0022C0  0E01               	movlw	0+(15/8)
  3739  0022C2  8EEB               	bsf	plusw0,(15)&7
  3740                           	line	23
  3741  0022C4  C11A  FFE9         	movff	(___ftunpack@arg),fsr0l
  3742  0022C8  C11B  FFEA         	movff	(___ftunpack@arg+1),fsr0h
  3743  0022CC  CFEE F11F          	movff	postinc0,??___ftunpack+1+0
  3744  0022D0  CFEE F120          	movff	postinc0,??___ftunpack+1+0+1
  3745  0022D4  CFEE F121          	movff	postinc0,??___ftunpack+1+0+2
  3746  0022D8  0101               	movlb	1	; () banked
  3747                           	
  3748  0022DA  AF21               	btfss	(??___ftunpack+1+2)&0ffh,(23)&7
  3749  0022DC  D001               	goto	u3181
  3750  0022DE  D001               	goto	u3180
  3751  0022E0                     u3181:
  3752  0022E0  D003               	goto	l350
  3753  0022E2                     u3180:
  3754                           	line	24
  3755  0022E2  0101               	movlb	1	; () banked
  3756  0022E4  0101               	movlb	1	; () banked
  3757  0022E6  2B1E               	incf	((___ftunpack@sign))&0ffh
  3758                           	
  3759  0022E8                     l350:		; BSR set to: ?
  3760                           
  3761                           	line	25
  3762  0022E8  C11A  FFE9         	movff	(___ftunpack@arg),fsr0l
  3763  0022EC  C11B  FFEA         	movff	(___ftunpack@arg+1),fsr0h
  3764  0022F0  0EFF               	movlw	low(0FFFFh)
  3765  0022F2  16EE               	andwf	postinc0
  3766  0022F4  0EFF               	movlw	high(0FFFFh)
  3767  0022F6  16EE               	andwf	postinc0
  3768  0022F8  0E00               	movlw	low highword(0FFFFh)
  3769  0022FA  16ED               	andwf	postdec0
  3770  0022FC  52ED               	movf	postdec0
  3771                           	line	26
  3772  0022FE  0101               	movlb	1	; () banked
  3773  002300  0101               	movlb	1	; () banked
  3774  002302  511E               	movf	((___ftunpack@sign))&0ffh,w
  3775  002304  D000               	goto	l348
  3776                           	line	27
  3777  002306                     l348:
  3778                           			; BSR set to: ?
  3779                           
  3780  002306  0012               	return
  3781                           	opt stack 0
  3782                           GLOBAL __end_of___ftunpack
  3783  002308                     	__end_of___ftunpack:
  3784                           	FNSIZE	___ftunpack,4,4
  3785                           ; =============== function ___ftunpack ends ====
                                 ========
  3786                           
  3787                           	signat	___ftunpack,8313
  3788                           	global	___ftpack
  3789                           	global	??___ftpack
  3790                           	global	?___ftpack
  3791                                   psect   text17,class=CODE,space=0,reloc=
                                 2
  3792                           
  3793                           	opt lm
  3794                           	file	"C:\Program Files (x86)\HI-TECH Software\P
                                 ICC-18\PRO\9.63\sources\float.c"
  3795                           	line	33
  3796  000000                     	__size_of___ftpack	equ	__end_of___ftpack-___ftp
                                 ack
  3797                           	
  3798  002030                     ___ftpack:		; BSR set to: ?
  3799                           
  3800                           	opt stack 27
  3801                           	line	34
  3802  002030  0101               	movlb	1	; () banked
  3803  002032  0101               	movlb	1	; () banked
  3804  002034  511C               	movf	((___ftpack@exp))&0ffh,w
  3805  002036  B4D8               	btfsc	status,2
  3806  002038  D001               	goto	u3191
  3807  00203A  D001               	goto	u3190
  3808  00203C                     u3191:
  3809  00203C  D00B               	goto	l600000278
  3810  00203E                     u3190:
  3811  00203E  C11A  FFE9         	movff	(___ftpack@arg),fsr0l
  3812  002042  C11B  FFEA         	movff	(___ftpack@arg+1),fsr0h
  3813  002046  50EE               	movf	postinc0,w
  3814  002048  10EE               	iorwf	postinc0,w
  3815  00204A  10ED               	iorwf	postdec0,w
  3816  00204C  A4D8               	btfss	status,2
  3817  00204E  D001               	goto	u3201
  3818  002050  D001               	goto	u3200
  3819  002052                     u3201:
  3820  002052  D00C               	goto	l352
  3821  002054                     u3200:
  3822                           	
  3823  002054                     l600000278:		; BSR set to: ?
  3824                           
  3825                           	line	35
  3826  002054  C11A  FFE9         	movff	(___ftpack@arg),fsr0l
  3827  002058  C11B  FFEA         	movff	(___ftpack@arg+1),fsr0h
  3828  00205C  0E00               	movlw	low(0)
  3829  00205E  6EEE               	movwf	postinc0
  3830  002060  0E00               	movlw	high(0)
  3831  002062  6EEE               	movwf	postinc0
  3832  002064  0E00               	movlw	low highword(0)
  3833  002066  6EED               	movwf	postdec0
  3834  002068  52ED               	movf	postdec0
  3835                           	line	36
  3836  00206A  D080               	goto	l351
  3837                           	line	37
  3838                           	
  3839  00206C                     l352:		; BSR set to: ?
  3840                           
  3841                           	line	38
  3842  00206C  D00D               	goto	l353
  3843                           	
  3844  00206E                     l354:		; BSR set to: ?
  3845+                          
  3846+                          	line	39
  3847+ 00206E  0101               	movlb	1	; () banked
  3848+ 002070  0101               	movlb	1	; () banked
  3849+ 002072  2B1C               	incf	((___ftpack@exp))&0ffh
  3850+                          	line	40
  3851+ 002074  C11A  FFE9         	movff	(___ftpack@arg),fsr0l
  3852+ 002078  C11B  FFEA         	movff	(___ftpack@arg+1),fsr0h
  3853+ 00207C  52EC               	movf	preinc0
  3854+ 00207E  52EC               	movf	preinc0
  3855+ 002080  90D8               	bcf	status,0
  3856+ 002082  32ED               	rrcf	postdec0
  3857+ 002084  32ED               	rrcf	postdec0
  3858+ 002086  32EF               	rrcf	indf0
  3859+                          	line	41
  3860+                          	
  3861+ 002088                     l353:		; BSR set to: ?
  3862+                          
  3863+                          	line	38
  3864+ 002088  C11A  FFE9         	movff	(___ftpack@arg),fsr0l
  3865+ 00208C  C11B  FFEA         	movff	(___ftpack@arg+1),fsr0h
  3866+ 002090  52EE               	movf	postinc0
  3867+ 002092  52EE               	movf	postinc0
  3868+ 002094  0EFE               	movlw	low highword(0FE0000h)
  3869+ 002096  14ED               	andwf	postdec0,w
  3870+ 002098  A4D8               	btfss	status,2
  3871+ 00209A  D001               	goto	u3211
  3872+ 00209C  D001               	goto	u3210
  3873+ 00209E                     u3211:
  3874+ 00209E  D7E7               	goto	l354
  3875+ 0020A0                     u3210:
  3876+                          	
  3877+ 0020A0                     l355:		; BSR set to: ?
  3878+                          
  3879+                          	line	42
  3880+ 0020A0  D016               	goto	l356
  3881+                          	
  3882+ 0020A2                     l357:		; BSR set to: ?
  3883+                          
  3884+                          	line	43
  3885+ 0020A2  0101               	movlb	1	; () banked
  3886+ 0020A4  0101               	movlb	1	; () banked
  3887+ 0020A6  2B1C               	incf	((___ftpack@exp))&0ffh
  3888+                          	line	44
  3889+ 0020A8  C11A  FFE9         	movff	(___ftpack@arg),fsr0l
  3890+ 0020AC  C11B  FFEA         	movff	(___ftpack@arg+1),fsr0h
  3891+ 0020B0  2AEE               	incf	postinc0
  3892+ 0020B2  0E00               	movlw	0
  3893+ 0020B4  22EE               	addwfc	postinc0
  3894+ 0020B6  22ED               	addwfc	postdec0
  3895+ 0020B8  52ED               	movf	postdec0
  3896+                          	line	45
  3897+ 0020BA  C11A  FFE9         	movff	(___ftpack@arg),fsr0l
  3898+ 0020BE  C11B  FFEA         	movff	(___ftpack@arg+1),fsr0h
  3899+ 0020C2  52EC               	movf	preinc0
  3900+ 0020C4  52EC               	movf	preinc0
  3901+ 0020C6  90D8               	bcf	status,0
  3902+ 0020C8  32ED               	rrcf	postdec0
  3903+ 0020CA  32ED               	rrcf	postdec0
  3904+ 0020CC  32EF               	rrcf	indf0
  3905+                          	line	46
  3906+                          	
  3907+ 0020CE                     l356:		; BSR set to: ?
  3908+                          
  3909+                          	line	42
  3910+ 0020CE  C11A  FFE9         	movff	(___ftpack@arg),fsr0l
  3911+ 0020D2  C11B  FFEA         	movff	(___ftpack@arg+1),fsr0h
  3912+ 0020D6  52EE               	movf	postinc0
  3913+ 0020D8  52EE               	movf	postinc0
  3914+ 0020DA  0EFF               	movlw	low highword(0FF0000h)
  3915+ 0020DC  14ED               	andwf	postdec0,w
  3916+ 0020DE  A4D8               	btfss	status,2
  3917+ 0020E0  D001               	goto	u3221
  3918+ 0020E2  D001               	goto	u3220
  3919+ 0020E4                     u3221:
  3920+ 0020E4  D7DE               	goto	l357
  3921+ 0020E6                     u3220:
  3922+                          	
  3923+ 0020E6                     l358:		; BSR set to: ?
  3924+                          
  3925+                          	line	47
  3926+ 0020E6  D00C               	goto	l359
  3927+                          	
  3928+ 0020E8                     l360:		; BSR set to: ?
  3929+                          
  3930+                          	line	48
  3931+ 0020E8  0101               	movlb	1	; () banked
  3932+ 0020EA  0101               	movlb	1	; () banked
  3933+ 0020EC  071C               	decf	((___ftpack@exp))&0ffh
  3934+                          	line	49
  3935+ 0020EE  C11A  FFE9         	movff	(___ftpack@arg),fsr0l
  3936+ 0020F2  C11B  FFEA         	movff	(___ftpack@arg+1),fsr0h
  3937+ 0020F6  90D8               	bcf	status,0
  3938+ 0020F8  36EE               	rlcf	postinc0
  3939+ 0020FA  36EE               	rlcf	postinc0
  3940+ 0020FC  36ED               	rlcf	postdec0
  3941+ 0020FE  52ED               	movf	postdec0
  3942+                          	line	50
  3943+                          	
  3944+ 002100                     l359:		; BSR set to: ?
  3945+                          
  3946+                          	line	47
  3947+ 002100  C11A  FFE9         	movff	(___ftpack@arg),fsr0l
  3948+ 002104  C11B  FFEA         	movff	(___ftpack@arg+1),fsr0h
  3949+ 002108  CFEE F11D          	movff	postinc0,??___ftpack+0+0
  3950+ 00210C  CFEE F11E          	movff	postinc0,??___ftpack+0+0+1
  3951+ 002110  CFEE F11F          	movff	postinc0,??___ftpack+0+0+2
  3952+ 002114  0101               	movlb	1	; () banked
  3953+                          	
  3954+ 002116  AF1E               	btfss	(??___ftpack+0+1)&0ffh,(15)&7
  3955+ 002118  D001               	goto	u3231
  3956+ 00211A  D001               	goto	u3230
  3957+ 00211C                     u3231:
  3958+ 00211C  D7E5               	goto	l360
  3959+ 00211E                     u3230:
  3960+                          	
  3961+ 00211E                     l361:		; BSR set to: ?
  3962+                          
  3963+                          	line	51
  3964+ 00211E  0101               	movlb	1	; () banked
  3965+                          	
  3966+ 002120  0101               	movlb	1	; () banked
  3967+ 002122  B11C               	btfsc	((___ftpack@exp))&0ffh,(0)&7
  3968+ 002124  D001               	goto	u3241
  3969+ 002126  D001               	goto	u3240
  3970+ 002128                     u3241:
  3971+ 002128  D00B               	goto	l362
  3972+ 00212A                     u3240:
  3973+                          	line	52
  3974+ 00212A  C11A  FFE9         	movff	(___ftpack@arg),fsr0l
  3975+ 00212E  C11B  FFEA         	movff	(___ftpack@arg+1),fsr0h
  3976+ 002132  0EFF               	movlw	low(0FF7FFFh)
  3977+ 002134  16EE               	andwf	postinc0
  3978+ 002136  0E7F               	movlw	high(0FF7FFFh)
  3979+ 002138  16EE               	andwf	postinc0
  3980+ 00213A  0EFF               	movlw	low highword(0FF7FFFh)
  3981+ 00213C  16ED               	andwf	postdec0
  3982+ 00213E  52ED               	movf	postdec0
  3983+                          	
  3984+ 002140                     l362:		; BSR set to: ?
  3985+                          
  3986+                          	line	53
  3987+ 002140  0101               	movlb	1	; () banked
  3988+ 002142  90D8               	bcf status,0
  3989+ 002144  331C               	rrcf	((___ftpack@exp))&0ffh
  3990+                          
  3991+                          	line	54
  3992+ 002146  0101               	movlb	1	; () banked
  3993+ 002148  0101               	movlb	1	; () banked
  3994+ 00214A  511C               	movf	((___ftpack@exp))&0ffh,w
  3995+ 00214C  0101               	movlb	1	; () banked
  3996+ 00214E  6F1F               	movwf	(??___ftpack+0+0+2)&0ffh
  3997+ 002150  6B1E               	clrf	(??___ftpack+0+0+1)&0ffh
  3998+ 002152  6B1D               	clrf	(??___ftpack+0+0)&0ffh
  3999+ 002154  C11A  FFE9         	movff	(___ftpack@arg),fsr0l
  4000+ 002158  C11B  FFEA         	movff	(___ftpack@arg+1),fsr0h
  4001+ 00215C  0101               	movlb	1	; () banked
  4002+ 00215E  511D               	movf	(??___ftpack+0+0)&0ffh,w
  4003+ 002160  12EE               	iorwf	postinc0
  4004+ 002162  511E               	movf	(??___ftpack+0+1)&0ffh,w
  4005+ 002164  12EE               	iorwf	postinc0
  4006+ 002166  511F               	movf	(??___ftpack+0+2)&0ffh,w
  4007+ 002168  12ED               	iorwf	postdec0
  4008+ 00216A  52ED               	movf	postdec0
  4009+                          	line	55
  4010+ 00216C                     l351:
  4011+                          			; BSR set to: ?
  4012+                          
  4013+ 00216C  0012               	return
  4014+                          	opt stack 0
  4015+                          GLOBAL __end_of___ftpack
  4016+ 00216E                     	__end_of___ftpack:
  4017+                          	FNSIZE	___ftpack,3,3
  4018+                          ; =============== function ___ftpack ends ======
      +                          ======
  4019+                          
  4020+                          	signat	___ftpack,8312
  4021+                          	global	_LCD_Pause
  4022+                          	global	??_LCD_Pause
  4023+                          	global	?_LCD_Pause
  4024+                                  psect   text18,class=CODE,space=0,reloc=
      +                          2
  4025+                          
  4026+                          	opt lm
  4027+                          	file	"A:\OneDrive\School\College\Junior\Fa23\Em
      +                          b Sys\c\hw10\timer1compare\lcd_portd.c"
  4028+                          	line	25
  4029+ 000000                     	__size_of_LCD_Pause	equ	__end_of_LCD_Pause-_LCD
      +                          _Pause
  4030+                          ;lcd_portd.c: 24: void LCD_Pause(void)
  4031+                          ;lcd_portd.c: 25: {
  4032+                          	
  4033+ 0025E0                     _LCD_Pause:		; BSR set to: ?
  4034+                          
  4035+                          	opt stack 26
  4036+                          	line	27
  4037+                          ;lcd_portd.c: 26: unsigned char x;
  4038+                          ;lcd_portd.c: 27: for (x=0; x<20; x++);
  4039+ 0025E0  0101               	movlb	1	; () banked
  4040+ 0025E2  6F1D               	movwf	(??_LCD_Pause+1+0)&0ffh
  4041+ 0025E4  0E00               	movlw	low(0)
  4042+ 0025E6  0101               	movlb	1	; () banked
  4043+ 0025E8  0101               	movlb	1	; () banked
  4044+ 0025EA  6F1C               	movwf	((LCD_Pause@x))&0ffh
  4045+ 0025EC  0101               	movlb	1	; () banked
  4046+ 0025EE  511D               	movf	(??_LCD_Pause+1+0)&0ffh,w
  4047+ 0025F0  0E13               	movlw	(014h-1)
  4048+ 0025F2  0101               	movlb	1	; () banked
  4049+ 0025F4  0101               	movlb	1	; () banked
  4050+ 0025F6  651C               	cpfsgt	((LCD_Pause@x))&0ffh
  4051+ 0025F8  D001               	goto	u3251
  4052+ 0025FA  D001               	goto	u3250
  4053+ 0025FC                     u3251:
  4054+ 0025FC  D001               	goto	l125
  4055+ 0025FE                     u3250:
  4056+ 0025FE  D00A               	goto	l126
  4057+                          	
  4058+ 002600                     l125:		; BSR set to: ?
  4059+                          
  4060+ 002600  0101               	movlb	1	; () banked
  4061+ 002602  0101               	movlb	1	; () banked
  4062+ 002604  2B1C               	incf	((LCD_Pause@x))&0ffh
  4063+ 002606  0E13               	movlw	(014h-1)
  4064+ 002608  0101               	movlb	1	; () banked
  4065+ 00260A  0101               	movlb	1	; () banked
  4066+ 00260C  651C               	cpfsgt	((LCD_Pause@x))&0ffh
  4067+ 00260E  D001               	goto	u3261
  4068+ 002610  D001               	goto	u3260
  4069+ 002612                     u3261:
  4070+ 002612  D7F6               	goto	l125
  4071+ 002614                     u3260:
  4072+                          	
  4073+ 002614                     l126:		; BSR set to: ?
  4074+                          
  4075+                          	line	28
  4076+                          ;lcd_portd.c: 28: }
  4077+ 002614                     l124:
  4078+                          			; BSR set to: ?
  4079+                          
  4080+ 002614  0012               	return
  4081+                          	opt stack 0
  4082+                          GLOBAL __end_of_LCD_Pause
  4083+ 002616                     	__end_of_LCD_Pause:
  4084+                          	FNSIZE	_LCD_Pause,2,0
  4085+                          ; =============== function _LCD_Pause ends =====
      +                          =======
  4086+                          
  4087+                          	signat	_LCD_Pause,88
  4088+                          	global	_IntServe
  4089+                          	global	??_IntServe
  4090+                          	global	?_IntServe
  4091+                                  psect   text19,class=CODE,space=0,reloc=
      +                          2
  4092+                          
  4093+                          	opt lm
  4094+                          	file	"A:\OneDrive\School\College\Junior\Fa23\Em
      +                          b Sys\c\hw10\timer1compare\compare.c"
  4095+                          	line	13
  4096+ 000000                     	__size_of_IntServe	equ	__end_of_IntServe-_IntSe
      +                          rve
  4097+                          ;compare.c: 12: void interrupt IntServe(void)
  4098+                          ;compare.c: 13: {
  4099+                          	
  4100+ 00216E                     _IntServe:		; BSR set to: ?
  4101+                          
  4102+ 00216E  0006               	pop	; remove dummy address from shadow register
      +                           refresh
  4103+                          
  4104+                          	opt stack 31
  4105+                                  psect   intcode,class=CODE,space=0,reloc
      +                          =2
  4106+                          	global	int_func
  4107+ 000808                     int_func:
  4108+                                  psect   intcode
  4109+ 000808  CFFA F129          	movff	pclat+0,??_IntServe+0
  4110+ 00080C  CFFB F12A          	movff	pclat+1,??_IntServe+1
  4111+ 000810  CFE9 F12B          	movff	fsr0l+0,??_IntServe+2
  4112+ 000814  EDB7  F010         	call	_IntServe,f	;refresh shadow registers
  4113+                                  psect   text19
  4114+ 002170  CFEA F12C          	movff	fsr0h+0,??_IntServe+3
  4115+ 002174  CFE1 F12D          	movff	fsr1l+0,??_IntServe+4
  4116+ 002178  CFE2 F12E          	movff	fsr1h+0,??_IntServe+5
  4117+ 00217C  CFD9 F12F          	movff	fsr2l+0,??_IntServe+6
  4118+ 002180  CFDA F130          	movff	fsr2h+0,??_IntServe+7
  4119+ 002184  CFF3 F131          	movff	prodl+0,??_IntServe+8
  4120+ 002188  CFF4 F132          	movff	prodh+0,??_IntServe+9
  4121+ 00218C  CFF6 F133          	movff	tblptrl+0,??_IntServe+10
  4122+ 002190  CFF7 F134          	movff	tblptrh+0,??_IntServe+11
  4123+ 002194  CFF8 F135          	movff	tblptru+0,??_IntServe+12
  4124+                          	line	14
  4125+                          ;compare.c: 14: if (TMR0IF) {
  4126+ 002198  A4F2               	btfss	c:(32658/8),(32658)&7	;volatile
  4127+ 00219A  D001               	goto	i2u2541
  4128+ 00219C  D001               	goto	i2u2540
  4129+ 00219E                     i2u2541:
  4130+ 00219E  D006               	goto	i2l110
  4131+ 0021A0                     i2u2540:
  4132+                          	line	15
  4133+                          ;compare.c: 15: TMR0 = -6250;
  4134+ 0021A0  0E96               	movlw	low(0E796h)
  4135+ 0021A2  6ED6               	movwf	((c:4054)),c	;volatile
  4136+ 0021A4  0EE7               	movlw	high(0E796h)
  4137+ 0021A6  6ED7               	movwf	((c:4054+1)),c	;volatile
  4138+                          	line	16
  4139+                          ;compare.c: 16: RC0 = !RC0;
  4140+ 0021A8  7082               	btg	c:(31760/8),(31760)&7	;volatile
  4141+                          	line	17
  4142+                          ;compare.c: 17: TMR0IF = 0;
  4143+ 0021AA  94F2               	bcf	c:(32658/8),(32658)&7	;volatile
  4144+                          	line	18
  4145+                          	
  4146+ 0021AC                     i2l110:		; BSR set to: ?
  4147+                          
  4148+                          	line	19
  4149+                          ;compare.c: 18: }
  4150+                          ;compare.c: 19: if (TMR1IF) {
  4151+ 0021AC  A09E               	btfss	c:(31984/8),(31984)&7	;volatile
  4152+ 0021AE  D001               	goto	i2u2551
  4153+ 0021B0  D001               	goto	i2u2550
  4154+ 0021B2                     i2u2551:
  4155+ 0021B2  D00D               	goto	i2l111
  4156+ 0021B4                     i2u2550:
  4157                           	line	20
  4158                           ;compare.c: 20: TIME = TIME + 0x10000;
  4159  0021B4  0E00               	movlw	0
  4160  0021B6  2406               	addwf	((c:6)),c,w
  4161  0021B8  6E06               	movwf	((c:6)),c
  4162  0021BA  0E00               	movlw	0
  4163  0021BC  2007               	addwfc	((c:6+1)),c,w
  4164  0021BE  6E07               	movwf	1+((c:6)),c
  4165  0021C0  0E01               	movlw	01h
  4166  0021C2  2008               	addwfc	((c:6+2)),c,w
  4167  0021C4  6E08               	movwf	2+((c:6)),c
  4168  0021C6  0E00               	movlw	0
  4169  0021C8  2009               	addwfc	((c:6+3)),c,w
  4170  0021CA  6E09               	movwf	3+((c:6)),c
  4171                           	line	21
  4172                           ;compare.c: 21: TMR1IF = 0;
  4173  0021CC  909E               	bcf	c:(31984/8),(31984)&7	;volatile
  4174                           	line	22
  4175                           	
  4176  0021CE                     i2l111:		; BSR set to: ?
  4177                           
  4178                           	line	23
  4179                           ;compare.c: 22: }
  4180                           ;compare.c: 23: if (CCP1IF) {
  4181  0021CE  A49E               	btfss	c:(31986/8),(31986)&7	;volatile
  4182  0021D0  D001               	goto	i2u2561
  4183  0021D2  D001               	goto	i2u2560
  4184  0021D4                     i2u2561:
  4185  0021D4  D01E               	goto	i2l112
  4186  0021D6                     i2u2560:
  4187                           	line	24
  4188                           ;compare.c: 24: if (CCP1CON == 0x05) {
  4189  0021D6  50BD               	movf	((c:4029)),c,w	;volatile
  4190  0021D8  0A05               	xorlw	5
  4191                           
  4192  0021DA  A4D8               	btfss	status,2
  4193  0021DC  D001               	goto	i2u2571
  4194  0021DE  D001               	goto	i2u2570
  4195  0021E0                     i2u2571:
  4196  0021E0  D009               	goto	i2l113
  4197  0021E2                     i2u2570:
  4198                           	line	25
  4199                           ;compare.c: 25: TIME0 = TIME + CCPR1;
  4200  0021E2  5006               	movf	((c:6)),c,w
  4201  0021E4  24BE               	addwf	((c:4030)),c,w	;volatile
  4202                           	
  4203  0021E6  6E00               	movwf	((c:0)),c
  4204  0021E8  5007               	movf	((c:6+1)),c,w
  4205  0021EA  20BF               	addwfc	((c:4030+1)),c,w	;volatile
  4206  0021EC  6E01               	movwf	1+((c:0)),c
  4207                           	line	26
  4208                           ;compare.c: 26: CCP1CON = 0x04;
  4209  0021EE  0E04               	movlw	low(04h)
  4210  0021F0  6EBD               	movwf	((c:4029)),c	;volatile
  4211                           	line	27
  4212                           ;compare.c: 27: }
  4213  0021F2  D00E               	goto	i2l114
  4214                           	line	28
  4215                           	
  4216  0021F4                     i2l113:		; BSR set to: ?
  4217                           
  4218                           	line	29
  4219                           ;compare.c: 28: else {
  4220                           ;compare.c: 29: TIME1 = TIME + CCPR1;
  4221  0021F4  5006               	movf	((c:6)),c,w
  4222  0021F6  24BE               	addwf	((c:4030)),c,w	;volatile
  4223                           	
  4224  0021F8  6E02               	movwf	((c:2)),c
  4225  0021FA  5007               	movf	((c:6+1)),c,w
  4226  0021FC  20BF               	addwfc	((c:4030+1)),c,w	;volatile
  4227  0021FE  6E03               	movwf	1+((c:2)),c
  4228                           	line	30
  4229                           ;compare.c: 30: N1 = TIME1 - TIME0;
  4230  002200  5000               	movf	((c:0)),c,w
  4231  002202  5C02               	subwf	((c:2)),c,w
  4232                           	
  4233  002204  6E0A               	movwf	((c:10)),c
  4234  002206  5001               	movf	((c:0+1)),c,w
  4235  002208  5803               	subwfb	((c:2+1)),c,w
  4236  00220A  6E0B               	movwf	1+((c:10)),c
  4237                           	line	31
  4238                           ;compare.c: 31: CCP1CON = 0x05;
  4239  00220C  0E05               	movlw	low(05h)
  4240  00220E  6EBD               	movwf	((c:4029)),c	;volatile
  4241                           	line	32
  4242                           	
  4243  002210                     i2l114:		; BSR set to: ?
  4244                           
  4245                           	line	33
  4246                           ;compare.c: 32: }
  4247                           ;compare.c: 33: CCP1IF = 0;
  4248  002210  949E               	bcf	c:(31986/8),(31986)&7	;volatile
  4249                           	line	34
  4250                           	
  4251  002212                     i2l112:		; BSR set to: ?
  4252                           
  4253                           	line	35
  4254                           ;compare.c: 34: }
  4255                           ;compare.c: 35: if (CCP2IF) {
  4256  002212  A0A1               	btfss	c:(32008/8),(32008)&7	;volatile
  4257  002214  D001               	goto	i2u2581
  4258  002216  D001               	goto	i2u2580
  4259  002218                     i2u2581:
  4260  002218  D007               	goto	i2l115
  4261  00221A                     i2u2580:
  4262                           	line	36
  4263                           ;compare.c: 36: CCP2CON ^= 1;
  4264  00221A  0E01               	movlw	(01h)&0ffh
  4265  00221C  1ABA               	xorwf	((c:4026)),c	;volatile
  4266                           	line	37
  4267                           ;compare.c: 37: CCPR2 += N2;
  4268  00221E  5004               	movf	((c:4)),c,w
  4269  002220  26BB               	addwf	((c:4027)),c	;volatile
  4270  002222  5005               	movf	((c:4+1)),c,w
  4271  002224  22BC               	addwfc	((c:4027+1)),c	;volatile
  4272                           
  4273                           	line	38
  4274                           ;compare.c: 38: CCP2IF = 0;
  4275  002226  90A1               	bcf	c:(32008/8),(32008)&7	;volatile
  4276                           	line	39
  4277                           	
  4278  002228                     i2l115:		; BSR set to: ?
  4279                           
  4280                           	line	40
  4281                           ;compare.c: 39: }
  4282                           ;compare.c: 40: }
  4283  002228                     i2l109:
  4284                           			; BSR set to: ?
  4285                           
  4286  002228  C135  FFF8         	movff	??_IntServe+12,tblptru+0
  4287  00222C  C134  FFF7         	movff	??_IntServe+11,tblptrh+0
  4288  002230  C133  FFF6         	movff	??_IntServe+10,tblptrl+0
  4289  002234  C132  FFF4         	movff	??_IntServe+9,prodh+0
  4290  002238  C131  FFF3         	movff	??_IntServe+8,prodl+0
  4291  00223C  C130  FFDA         	movff	??_IntServe+7,fsr2h+0
  4292  002240  C12F  FFD9         	movff	??_IntServe+6,fsr2l+0
  4293  002244  C12E  FFE2         	movff	??_IntServe+5,fsr1h+0
  4294  002248  C12D  FFE1         	movff	??_IntServe+4,fsr1l+0
  4295  00224C  C12C  FFEA         	movff	??_IntServe+3,fsr0h+0
  4296  002250  C12B  FFE9         	movff	??_IntServe+2,fsr0l+0
  4297  002254  C12A  FFFB         	movff	??_IntServe+1,pclat+1
  4298  002258  C129  FFFA         	movff	??_IntServe+0,pclat+0
  4299  00225C  0011               	retfie f
  4300                           	opt stack 0
  4301                           GLOBAL __end_of_IntServe
  4302  00225E                     	__end_of_IntServe:
  4303                           	FNSIZE	_IntServe,13,0
  4304                           ; =============== function _IntServe ends ======
                                 ======
  4305                           
  4306                           	signat	_IntServe,88
  4307                           	FNCALL	_main,_LCD_Init
  4308                           	FNCALL	_main,_LCD_Move
  4309                           	FNCALL	_main,_LCD_Write
  4310                           	FNCALL	_main,_Wait_ms
  4311                           	FNCALL	_main,___lwtoft
  4312                           	FNCALL	_main,___ftmul
  4313                           	FNCALL	_main,___fttol
  4314                           	FNCALL	_main,___ftsub
  4315                           	FNCALL	_main,___ftdiv
  4316                           	FNCALL	_main,_LCD_Out
  4317                           	FNCALL	___ftdiv,___ftunpack
  4318                           	FNCALL	___ftdiv,___ftpack
  4319                           	FNCALL	___lwtoft,___ftpack
  4320                           	FNCALL	___ftmul,___ftunpack
  4321                           	FNCALL	___ftmul,___ftpack
  4322                           	FNCALL	___ftsub,___ftadd
  4323                           	FNCALL	___fttol,___ftunpack
  4324                           	FNCALL	_LCD_Move,_LCD_Inst
  4325                           	FNCALL	_LCD_Out,_LCD_Write
  4326                           	FNCALL	_LCD_Out,___almod
  4327                           	FNCALL	_LCD_Out,___aldiv
  4328                           	FNCALL	_LCD_Init,_LCD_Inst
  4329                           	FNCALL	_LCD_Init,_Wait_ms
  4330                           	FNCALL	___ftadd,___ftunpack
  4331                           	FNCALL	___ftadd,___ftpack
  4332                           	FNCALL	_LCD_Inst,_LCD_Strobe
  4333                           	FNCALL	_LCD_Inst,_Wait_ms
  4334                           	FNCALL	_LCD_Write,_LCD_Strobe
  4335                           	FNCALL	_LCD_Strobe,_LCD_Pause
  4336                           	FNROOT	_main
  4337                           	FNCALL	intlevel2,_IntServe
  4338                           	global	intlevel2
  4339                           	FNROOT	intlevel2
  4340                           ;	FNARG	___ftmul,___lwtoft
  4341                           ;	FNARG	___ftsub,___ftmul
  4342                           ;	FNARG	___ftsub,___lwtoft
  4343                           ;	FNARG	___ftdiv,___lwtoft
  4344                                   psect   smallconst,class=SMALLCONST,spac
                                 e=0,reloc=2
  4345  001000  00                 	db	0	;reserve
  4346                           	global	_MSG0
  4347                           	line	9
  4348  001001                     _MSG0:
  4349  001001  6D                 	db	low(06Dh)
  4350  001002  6D                 	db	low(06Dh)
  4351  001003  3A                 	db	low(03Ah)
  4352  001004  20                 	db	low(020h)
  4353  001005  00                 	db	low(0)
  4354  001006  00                 	db   0
  4355  001007  00                 	db   0
  4356  001008  00                 	db   0
  4357  001009  00                 	db   0
  4358  00100A  00                 	db   0
  4359  00100B  00                 	db   0
  4360  00100C  00                 	db   0
  4361  00100D  00                 	db   0
  4362  00100E  00                 	db   0
  4363  00100F  00                 	db   0
  4364  001010  00                 	db   0
  4365  001011  00                 	db   0
  4366  001012  00                 	db   0
  4367  001013  00                 	db   0
  4368  001014  00                 	db   0
  4369  001015  00                 	db   0
  4370                           	global	_MSG1
  4371                           	line	10
  4372  001016                     _MSG1:
  4373  001016  48                 	db	low(048h)
  4374  001017  7A                 	db	low(07Ah)
  4375  001018  3A                 	db	low(03Ah)
  4376  001019  20                 	db	low(020h)
  4377  00101A  00                 	db	low(0)
  4378  00101B  00                 	db   0
  4379  00101C  00                 	db   0
  4380  00101D  00                 	db   0
  4381  00101E  00                 	db   0
  4382  00101F  00                 	db   0
  4383  001020  00                 	db   0
  4384  001021  00                 	db   0
  4385  001022  00                 	db   0
  4386  001023  00                 	db   0
  4387  001024  00                 	db   0
  4388  001025  00                 	db   0
  4389  001026  00                 	db   0
  4390  001027  00                 	db   0
  4391  001028  00                 	db   0
  4392  001029  00                 	db   0
  4393  00102A  00                 	db   0
  4394                           	global	_MSG0
  4395                           	global	_MSG1
  4396                           	global	_TIME
  4397                           	global	_TIME
  4398  000000                     _TIME  equ     6
  4399                           
  4400                           	DABS	1,6,4	;_TIME
  4401                           	global	_N1
  4402                           	global	_N1
  4403  000000                     _N1  equ     10
  4404                           
  4405                           	DABS	1,10,2	;_N1
  4406                           	global	_N2
  4407                           	global	_N2
  4408  000000                     _N2  equ     4
  4409                           
  4410                           	DABS	1,4,2	;_N2
  4411                           	global	_TIME0
  4412                           	global	_TIME0
  4413  000000                     _TIME0  equ     0
  4414                           
  4415                           	DABS	1,0,2	;_TIME0
  4416                           	global	_TIME1
  4417                           	global	_TIME1
  4418  000000                     _TIME1  equ     2
  4419                           
  4420                           	DABS	1,2,2	;_TIME1
  4421                           	global	_CCPR1
  4422  000000                     _CCPR1	equ	0xFBE
  4423                           	global	_CCPR2
  4424  000000                     _CCPR2	equ	0xFBB
  4425                           	global	_TMR0
  4426  000000                     _TMR0	equ	0xFD6
  4427                           	global	_ADCON1
  4428  000000                     _ADCON1	equ	0xFC1
  4429                           	global	_CCP1CON
  4430  000000                     _CCP1CON	equ	0xFBD
  4431                           	global	_CCP2CON
  4432  000000                     _CCP2CON	equ	0xFBA
  4433                           	global	_PORTD
  4434  000000                     _PORTD	equ	0xF83
  4435                           	global	_T0CON
  4436  000000                     _T0CON	equ	0xFD5
  4437                           	global	_T1CON
  4438  000000                     _T1CON	equ	0xFCD
  4439                           	global	_TRISA
  4440  000000                     _TRISA	equ	0xF92
  4441                           	global	_TRISB
  4442  000000                     _TRISB	equ	0xF93
  4443                           	global	_TRISC
  4444  000000                     _TRISC	equ	0xF94
  4445                           	global	_TRISD
  4446  000000                     _TRISD	equ	0xF95
  4447                           	global	_TXREG
  4448  000000                     _TXREG	equ	0xFAD
  4449                           	global	_CCP1IE
  4450  000000                     _CCP1IE	equ	0x7CEA
  4451                           	global	_CCP1IF
  4452  000000                     _CCP1IF	equ	0x7CF2
  4453                           	global	_CCP2IE
  4454  000000                     _CCP2IE	equ	0x7D00
  4455                           	global	_CCP2IF
  4456  000000                     _CCP2IF	equ	0x7D08
  4457                           	global	_GIE
  4458  000000                     _GIE	equ	0x7F97
  4459                           	global	_PEIE
  4460  000000                     _PEIE	equ	0x7F96
  4461                           	global	_RC0
  4462  000000                     _RC0	equ	0x7C10
  4463                           	global	_RD1
  4464  000000                     _RD1	equ	0x7C19
  4465                           	global	_RD2
  4466  000000                     _RD2	equ	0x7C1A
  4467                           	global	_RD3
  4468  000000                     _RD3	equ	0x7C1B
  4469                           	global	_T0CS
  4470  000000                     _T0CS	equ	0x7EAD
  4471                           	global	_TMR0IE
  4472  000000                     _TMR0IE	equ	0x7F95
  4473                           	global	_TMR0IF
  4474  000000                     _TMR0IF	equ	0x7F92
  4475                           	global	_TMR0IP
  4476  000000                     _TMR0IP	equ	0x7F8A
  4477                           	global	_TMR0ON
  4478  000000                     _TMR0ON	equ	0x7EAF
  4479                           	global	_TMR1CS
  4480  000000                     _TMR1CS	equ	0x7E69
  4481                           	global	_TMR1IE
  4482  000000                     _TMR1IE	equ	0x7CE8
  4483                           	global	_TMR1IF
  4484  000000                     _TMR1IF	equ	0x7CF0
  4485                           	global	_TMR1IP
  4486  000000                     _TMR1IP	equ	0x7CF8
  4487                           	global	_TMR1ON
  4488  000000                     _TMR1ON	equ	0x7E68
  4489                           	global	_TRISC1
  4490  000000                     _TRISC1	equ	0x7CA1
  4491                           	global	_TRISC2
  4492  000000                     _TRISC2	equ	0x7CA2
  4493                           	global	_TRMT
  4494  000000                     _TRMT	equ	0x7D61
  4495  00102B  00                 	db 0	; dummy byte at the end
  4496                           	psect	intsave_regs,class=BIGRAM,space=1
  4497                           	PSECT	param1,class=BANK1,space=1
  4498                           	GLOBAL	__Lparam1
  4499                           	FNCONF	param1,??,?
  4500                           	GLOBAL	__Labsbss0
  4501  000000                     __Labsbss0	EQU	0
  4502                           	GLOBAL	__Habsbss0
  4503  000000                     __Habsbss0	EQU	12
  4504                           GLOBAL	__Lparam, __Hparam
  4505                           GLOBAL	__Lparam1, __Hparam1
  4506  000000                     __Lparam	EQU	__Lparam1
  4507  000000                     __Hparam	EQU	__Hparam1


HI-TECH Software PICC-18 Macro Assembler V9.63PL3 build 4692 
Symbol Table                                           Thu Nov 16 15:42:05 2023

                 _N1 00000A                   _N2 000004  
        ?_LCD_Strobe 011C         ___ftadd@exp1 0118  
       ___ftadd@exp2 0117         ___ftadd@cntr 0115  
                l120 247A                  l121 2454  
                l122 2472                  l210 1854  
                l130 241C                  l211 17AA  
                l131 23B8                  l124 2614  
                l116 249A                  l212 1790  
                l220 1C28                  l140 1DDA  
                l132 23D8                  l125 2600  
                l117 242E                  l213 17B6  
                l221 1C54                  l141 1E76  
                l133 23FA                  l126 2614  
                l118 249A                  l230 1D50  
                l222 1D22                  l134 241C  
                l207 1894                  l215 1854  
                l223 1C92                  l135 25DE  
                l143 1E88                  l128 2628  
                l216 17B6                  l208 171E  
                l224 1C78                  l400 15C4  
                l136 2398                  l144 1EEA  
                l217 1838                  l209 1752  
                l225 1C9E                  l129 255E  
                l401 1602                  l137 1EEA  
                l218 1882                  l402 1682  
                l146 1EAE                  l138 1DA6  
                l410 1B20                  l219 1D62  
                l227 1D22                  l403 16C2  
                l139 1DBA                  l411 1B86  
                l228 1C9E                  l412 1BCC  
                l180 1392                  l229 1D06  
                l421 1A10                  l405 1BDA  
                l181 11C2                  l350 22E8  
                l422 19B8                  l414 1A4C  
                l406 1AAE                  l174 1094  
                l351 216C                  l423 19E8  
                l415 1932                  l407 1AF6  
                l175 10D4                  l360 20E8  
                l352 206C                  l432 1F9A  
                l424 1A3E                  l512 2510  
                l361 211E                  l353 2088  
                l433 1F7E                  l417 19A8  
                l513 24C6                  l409 1B9E  
                l177 111E                  l362 2140  
                l354 206E                  l434 1FEE  
                l426 25A2                  l418 1950  
                l178 115E                  l355 20A0  
                l435 1FC6                  l419 1980  
                l356 20CE                  l348 2306  
                l380 1682                  l436 1FE2  
                l428 202E                  l357 20A2  
                l349 22A8                  l381 14DE  
                l437 1FC8                  l429 1F9C  
                l358 20E6                  l390 1586  
                l438 1FEE                  l359 2100  
                l391 1586                  l383 14DC  
                l439 201C                  l393 1586  
                l385 14B2                  l377 16D0  
                l386 1480                  l378 139A  
                l395 155C                  l387 14CA  
                l379 13E2                  l396 152A  
                l388 14B4                  l397 1574  
                l389 14DC                  l398 155E  
                l399 1586                  _GIE 007F97  
                _RC0 007C10                  _RD1 007C19  
                _RD2 007C1A                  _RD3 007C1B  
    __end_of_LCD_Out 1EEC         ___ftdiv@exp1 0110  
       ___ftdiv@exp2 010E        ___ftadd@sign1 0116  
      ___ftadd@sign2 0114                 _T0CS 007EAD  
               u3000 1642                 u3001 1640  
               u3010 16AA                 u3011 16A8  
               u3100 177E                 u3020 1BF8  
               u3101 177C                 u3021 1BF6  
               u3110 17B6                 u3030 1C34  
               u3111 17B4                 u3031 1C32  
               u3200 2054                 u3120 1802  
               u3040 1C66                 u3201 2052  
               u3121 1800                 u3041 1C64  
               u3210 20A0                 u3130 1862  
               u3050 1C9E                 u3211 209E  
               u3131 1860                 u3051 1C9C  
               u3220 20E6                 u3140 2452  
               u3060 1CD6                 u3221 20E4  
               u3141 2450                 u3061 1CD4  
               u3230 211E                 u3150 2472  
               u3070 1D30                 u3231 211C  
               u3151 2470                 u3071 1D2E  
               u3240 212A                 u3160 249A  
               u3080 16EE                 u2600 10D4  
               u3241 2128                 u3161 2498  
               u3081 16EC                 u2601 10D2  
               u3250 25FE                 u3170 228E  
               u3090 172A                 u2610 111C  
               u3251 25FC                 u3171 228C  
               u3091 1728                 u2611 111A  
               u3260 2614                 u3180 22E2  
               u2700 195C                 u2620 115E  
               u3261 2612                 u3181 22E0  
               u2701 195A                 u2621 115C  
               u3190 203E                 u2710 19C4  
               u2630 1AA0                 u3191 203C  
               u2711 19C2                 u2631 1A9E  
               u2800 23E8                 u2720 1A38  
               u2640 1AE8                 u2801 23E6  
               u2721 1A36                 u2641 1AE6  
               u2810 240A                 u2730 1F50  
               u2650 1B5C                 u2811 2408  
               u2731 1F4E                 u2651 1B5A  
               u2900 1440                 u2820 1D70  
               u2740 1F62                 u2660 1BC6  
               u2901 143E                 u2821 1D6E  
               u2741 1F60                 u2661 1BC4  
               u2910 145E                 u2830 1DD8  
               u2750 1FAA                 u2670 24AC  
               u2590 1092                 u2911 145C  
               u2831 1DD6                 u2751 1FA8  
               u2671 24AA                 u2591 1090  
               u2920 14AA                 u2840 1E76  
               u2760 1FEE                 u2680 1918  
               u2921 14A8                 u2841 1E74  
               u2761 1FEC                 u2681 1916  
               u2930 14DC                 u2850 1E86  
               u2770 1FFC                 u2690 1924  
               _PEIE 007F96                 u2931 14DA  
               u2851 1E84                 u2771 1FFA  
               u2691 1922                 u2940 14F2  
               u2860 1E9A                 u2780 23A6  
               u2941 14F0                 u2861 1E98  
               u2781 23A4                 u2950 1510  
               u2870 1EEA                 u2790 23C6  
               u2951 150E                 u2871 1EE8  
               u2791 23C4                 u2960 1554  
               u2880 13D4                 u2961 1552  
               u2881 13D2                 u2970 1586  
               u2890 141E                 _MSG0 1001  
               u2971 1584                 u2891 141C  
               _MSG1 1016                 u2980 1594  
               u2981 1592                 u2990 15D2  
               u2991 15D0                 _TIME 000006  
               _TMR0 000FD6                 _TRMT 007D61  
               _main 102C         ___ftpack@arg 011A  
       ___ftpack@exp 011C                 fsr0h 000FEA  
               fsr1h 000FE2                 indf0 000FEF  
               fsr0l 000FE9                 fsr2h 000FDA  
               fsr1l 000FE1                 fsr2l 000FD9  
               pclat 000FFA                 prodh 000FF4  
               prodl 000FF3                 start 0818  
       ___ftmul@exp1 010F         ___ftmul@cntr 0110  
        LCD_Out@DATA 0108          LCD_Move@Col 0109  
        LCD_Move@Row 0108         ___fttol@exp1 010D  
       ___fttol@lval 010E     __end_of_LCD_Init 239A  
   __end_of_LCD_Inst 2560     __end_of_LCD_Move 241E  
    __end_of_Wait_ms 249C        ___ftdiv@sign1 010F  
      ___ftdiv@sign2 0111      __end_of___aldiv 1896  
    __end_of___almod 1D64                ?_main 0100  
    __end_of___ftadd 16D2                _CCPR1 000FBE  
              _CCPR2 000FBB      __end_of___ftdiv 1BDC  
    __end_of___ftmul 1A4E                _T0CON 000FD5  
              _T1CON 000FCD      __end_of___ftsub 25A4  
    __end_of___fttol 2030                i2l110 21AC  
              i2l111 21CE                i2l112 2212  
              i2l113 21F4                i2l114 2210  
              i2l115 2228                i2l109 2228  
              _TIME0 000000                _TIME1 000002  
              _PORTD 000F83                _TRISA 000F92  
              _TRISB 000F93                _TRISC 000F94  
              _TRISD 000F95                _TXREG 000FAD  
              main@i 0104                tablat 000FF5  
              plusw0 000FEB                status 000FD8  
      ___ftmul@sign1 010E         __end_of_main 1398  
   __end_of_IntServe 225E               ??_main 0100  
      ___fttol@sign1 010C        __activetblptr 000003  
  __end_of_LCD_Pause 2616            ??_LCD_Out 010E  
  __end_of_LCD_Write 25E0               _ADCON1 000FC1  
             _CCP1IE 007CEA               _CCP1IF 007CF2  
             _CCP2IE 007D00               _CCP2IF 007D08  
   __end_of___ftpack 216E     __end_of___lwtoft 2512  
             i2u2540 21A0               i2u2541 219E  
             i2u2550 21B4               i2u2551 21B2  
             i2u2560 21D6               i2u2561 21D4  
             i2u2570 21E2               i2u2571 21E0  
             i2u2580 221A               i2u2581 2218  
             _TMR0IE 007F95               _TMR0IF 007F92  
             _TMR1IE 007CE8               _TMR1IF 007CF0  
             _TMR1CS 007E69               _TMR0IP 007F8A  
             _TMR1IP 007CF8               _TMR0ON 007EAF  
             _TMR1ON 007E68               _TRISC1 007CA1  
             _TRISC2 007CA2               __Ldata 000000  
          ??_Wait_ms 010E            ??___aldiv 0122  
          ??___almod 0122            ??___ftadd 0114  
          ??___ftdiv 010E            ??___ftmul 010E  
          ??___ftsub 010E            ??___fttol 010C  
             main@Hz 0100               main@mm 0102  
       __mediumconst 102C               preinc0 000FEC  
             tblptrh 000FF7               tblptrl 000FF6  
             tblptru 000FF8           __accesstop 0080  
          ?_LCD_Init 0108            ?_LCD_Inst 010A  
          ?_LCD_Move 0108           ___ftadd@f1 010E  
         ___ftadd@f2 0111           ___ftdiv@f1 0108  
         ___ftdiv@f2 010B           ___ftdiv@f3 0112  
         ___ftmul@f1 0108           ___ftmul@f2 010B  
         ___ftmul@f3 0111            LCD_Inst@c 010A  
         ___ftsub@f1 0108           ___ftsub@f2 010B  
         ___fttol@f1 0108           ___ftunpack 225E  
       ??_LCD_Strobe 011C           ___lwtoft@c 0108  
          ?_IntServe 0129           ??_LCD_Init 0108  
         ??_LCD_Inst 010B           ??_LCD_Move 010A  
 __end_of_LCD_Strobe 262A       ___ftunpack@arg 011A  
     ___ftunpack@exp 011C              _CCP1CON 000FBD  
            _CCP2CON 000FBA            l600000273 1924  
          l600000276 14B2            l600000277 155C  
          l600000278 2054            ?___ftpack 011A  
          ?___lwtoft 0108              _LCD_Out 1D64  
         ??_IntServe 0129              __Hparam 0136  
            __Lparam 0100              _Wait_ms 241E  
        ?___ftunpack 011A              ___aldiv 16D2  
            ___almod 1BDC              ___ftadd 1398  
            ___ftdiv 1A4E              ___ftmul 1896  
            ___ftsub 2560              ___fttol 1EEC  
         ??___ftpack 011D              __ramtop 1000  
         ??___lwtoft 010B     ___aldiv@dividend 011A  
          _LCD_Pause 25E0            _LCD_Write 25A4  
      __Lmediumconst 102C              int_func 0808  
   ___aldiv@quotient 0124              postdec0 000FED  
            postinc0 000FEE           ?_LCD_Pause 011C  
         ?_LCD_Write 011A           LCD_Pause@x 011C  
         LCD_Write@c 011A            __Habsbss0 00000C  
        ___lwtoft@f1 010B            __Labsbss0 000000  
           ?_LCD_Out 0108             LCD_Out@A 010F  
           LCD_Out@D 010C             LCD_Out@N 010D  
           LCD_Out@i 010E          ??_LCD_Pause 011C  
        ??_LCD_Write 011B             ?_Wait_ms 010C  
       ??___ftunpack 011E             ?___aldiv 011A  
           ?___almod 011A             ?___ftadd 010E  
           ?___ftdiv 0108             ?___ftmul 0108  
           ?___ftsub 0108             ?___fttol 0108  
   ___almod@dividend 011A      ___ftunpack@sign 011E  
        __smallconst 1000   __end_of___ftunpack 2308  
    ___aldiv@divisor 011E      ___aldiv@counter 0122  
           _LCD_Init 2308             _LCD_Inst 2512  
           _LCD_Move 239A             _IntServe 216E  
           __Hparam1 0136             __Lparam1 0100  
           Wait_ms@X 010C             Wait_ms@i 010E  
           Wait_ms@j 0110         __Lsmallconst 1000  
           ___ftpack 2030             ___lwtoft 249C  
    ___almod@divisor 011E      ___almod@counter 0123  
         _LCD_Strobe 2616             intlevel2 262A  
       ___aldiv@sign 0123         ___almod@sign 0122  
