

HI-TECH Software LITE Macro Assembler (PIC18) V9.63PL3 build 4692 
                                                       Mon Oct 02 17:18:20 2023

HI-TECH Software Omniscient Code Generator build 4692
     1  000000                     opt subtitle "HI-TECH Software Omniscient Code G
                                 enerator build 4692"
     2                           
     3                           	processor	18F4620
     4  000000                     porta	equ	0F80h
     5  000000                     portb	equ	0F81h
     6  000000                     portc	equ	0F82h
     7  000000                     portd	equ	0F83h
     8  000000                     porte	equ	0F84h
     9  000000                     lata	equ	0F89h
    10  000000                     latb	equ	0F8Ah
    11  000000                     latc	equ	0F8Bh
    12  000000                     latd	equ	0F8Ch
    13  000000                     late	equ	0F8Dh
    14  000000                     trisa	equ	0F92h
    15  000000                     trisb	equ	0F93h
    16  000000                     trisc	equ	0F94h
    17  000000                     trisd	equ	0F95h
    18  000000                     trise	equ	0F96h
    19  000000                     pie1	equ	0F9Dh
    20  000000                     pir1	equ	0F9Eh
    21  000000                     ipr1	equ	0F9Fh
    22  000000                     pie2	equ	0FA0h
    23  000000                     pir2	equ	0FA1h
    24  000000                     ipr2	equ	0FA2h
    25  000000                     t3con	equ	0FB1h
    26  000000                     tmr3l	equ	0FB2h
    27  000000                     tmr3h	equ	0FB3h
    28  000000                     ccp1con	equ	0FBDh
    29  000000                     ccpr1l	equ	0FBEh
    30  000000                     ccpr1h	equ	0FBFh
    31  000000                     adcon1	equ	0FC1h
    32  000000                     adcon0	equ	0FC2h
    33  000000                     adresl	equ	0FC3h
    34  000000                     adresh	equ	0FC4h
    35  000000                     sspcon2	equ	0FC5h
    36  000000                     sspcon1	equ	0FC6h
    37  000000                     sspstat	equ	0FC7h
    38  000000                     sspadd	equ	0FC8h
    39  000000                     sspbuf	equ	0FC9h
    40  000000                     t2con	equ	0FCAh
    41  000000                     pr2	equ	0FCBh
    42  000000                     tmr2	equ	0FCCh
    43  000000                     t1con	equ	0FCDh
    44  000000                     tmr1l	equ	0FCEh
    45  000000                     tmr1h	equ	0FCFh
    46  000000                     rcon	equ	0FD0h
    47  000000                     wdtcon	equ	0FD1h
    48  000000                     lvdcon	equ	0FD2h
    49  000000                     osccon	equ	0FD3h
    50  000000                     t0con	equ	0FD5h
    51  000000                     tmr0l	equ	0FD6h
    52  000000                     tmr0h	equ	0FD7h
    53  000000                     status	equ	0FD8h
    54  000000                     fsr2	equ	0FD9h
    55  000000                     fsr2l	equ	0FD9h
    56  000000                     fsr2h	equ	0FDAh
    57  000000                     plusw2	equ	0FDBh
    58  000000                     preinc2	equ	0FDCh
    59  000000                     postdec2	equ	0FDDh
    60  000000                     postinc2	equ	0FDEh
    61  000000                     indf2	equ	0FDFh
    62  000000                     bsr	equ	0FE0h
    63  000000                     fsr1	equ	0FE1h
    64  000000                     fsr1l	equ	0FE1h
    65  000000                     fsr1h	equ	0FE2h
    66  000000                     plusw1	equ	0FE3h
    67  000000                     preinc1	equ	0FE4h
    68  000000                     postdec1	equ	0FE5h
    69  000000                     postinc1	equ	0FE6h
    70  000000                     indf1	equ	0FE7h
    71  000000                     wreg	equ	0FE8h
    72  000000                     fsr0	equ	0FE9h
    73  000000                     fsr0l	equ	0FE9h
    74  000000                     fsr0h	equ	0FEAh
    75  000000                     plusw0	equ	0FEBh
    76  000000                     preinc0	equ	0FECh
    77  000000                     postdec0	equ	0FEDh
    78  000000                     postinc0	equ	0FEEh
    79  000000                     indf0	equ	0FEFh
    80  000000                     intcon3	equ	0FF0h
    81  000000                     intcon2	equ	0FF1h
    82  000000                     intcon	equ	0FF2h
    83  000000                     prod	equ	0FF3h
    84  000000                     prodl	equ	0FF3h
    85  000000                     prodh	equ	0FF4h
    86  000000                     tablat	equ	0FF5h
    87  000000                     tblptr	equ	0FF6h
    88  000000                     tblptrl	equ	0FF6h
    89  000000                     tblptrh	equ	0FF7h
    90  000000                     tblptru	equ	0FF8h
    91  000000                     pcl	equ	0FF9h
    92  000000                     pclat	equ	0FFAh
    93  000000                     pclath	equ	0FFAh
    94  000000                     pclatu	equ	0FFBh
    95  000000                     stkptr	equ	0FFCh
    96  000000                     tosl	equ	0FFDh
    97  000000                     tosh	equ	0FFEh
    98  000000                     tosu	equ	0FFFh
    99                           	global	__ramtop
   100                           	global	__accesstop
   101                           	GLOBAL	__activetblptr
   102  000000                     __activetblptr	EQU	3
   103                           	GLOBAL	__smallconst,__Lsmallconst
   104  000000                     __smallconst	EQU	__Lsmallconst
   105                           	GLOBAL	__mediumconst,__Lmediumconst
   106  000000                     __mediumconst	EQU	__Lmediumconst
   107                           	GLOBAL	__Ldata
   108  000000                     __Ldata	EQU	0
   109  000000                     main@T	equ	??_main+0
   110                           	global	main@T
   111  000000                     main@A2D	equ	??_main+2
   112                           	global	main@A2D
   113  000000                     main@STEP	equ	??_main+4
   114                           	global	main@STEP
   115  000000                     main@X	equ	??_main+6
   116                           	global	main@X
   117  000000                     main@Y	equ	??_main+8
   118                           	global	main@Y
   119  000000                     main@Z	equ	??_main+10
   120                           	global	main@Z
   121  000000                     main@i	equ	??_main+12
   122                           	global	main@i
   123  000000                     ___ftdiv@exp2	equ	??___ftdiv+0
   124                           	global	___ftdiv@exp2
   125  000000                     ___ftdiv@sign1	equ	??___ftdiv+1
   126                           	global	___ftdiv@sign1
   127  000000                     ___ftdiv@exp1	equ	??___ftdiv+2
   128                           	global	___ftdiv@exp1
   129  000000                     ___ftdiv@sign2	equ	??___ftdiv+3
   130                           	global	___ftdiv@sign2
   131  000000                     ___ftdiv@f3	equ	??___ftdiv+4
   132                           	global	___ftdiv@f3
   133  000000                     ___ftdiv@f1	equ	?___ftdiv+0
   134                           	global	___ftdiv@f1
   135  000000                     ___ftdiv@f2	equ	?___ftdiv+3
   136                           	global	___ftdiv@f2
   137  000000                     ___lwtoft@f1	equ	??___lwtoft+0
   138                           	global	___lwtoft@f1
   139  000000                     ___lwtoft@c	equ	?___lwtoft+0
   140                           	global	___lwtoft@c
   141  000000                     A2D_Read@i	equ	??_A2D_Read+0
   142                           	global	A2D_Read@i
   143  000000                     A2D_Read@c	equ	?_A2D_Read+0
   144                           	global	A2D_Read@c
   145  000000                     ___ftadd@sign2	equ	??___ftadd+0
   146                           	global	___ftadd@sign2
   147  000000                     ___ftadd@cntr	equ	??___ftadd+1
   148                           	global	___ftadd@cntr
   149  000000                     ___ftadd@sign1	equ	??___ftadd+2
   150                           	global	___ftadd@sign1
   151  000000                     ___ftadd@exp2	equ	??___ftadd+3
   152                           	global	___ftadd@exp2
   153  000000                     ___ftadd@exp1	equ	??___ftadd+4
   154                           	global	___ftadd@exp1
   155  000000                     ___ftadd@f1	equ	?___ftadd+0
   156                           	global	___ftadd@f1
   157  000000                     ___ftadd@f2	equ	?___ftadd+3
   158                           	global	___ftadd@f2
   159  000000                     LCD_Out@i	equ	??_LCD_Out+0
   160                           	global	LCD_Out@i
   161  000000                     LCD_Out@A	equ	??_LCD_Out+1
   162                           	global	LCD_Out@A
   163  000000                     LCD_Out@DATA	equ	?_LCD_Out+0
   164                           	global	LCD_Out@DATA
   165  000000                     LCD_Out@D	equ	?_LCD_Out+4
   166                           	global	LCD_Out@D
   167  000000                     LCD_Out@N	equ	?_LCD_Out+5
   168                           	global	LCD_Out@N
   169  000000                     ___wmul@product	equ	??___wmul+0
   170                           	global	___wmul@product
   171  000000                     ___wmul@multiplier	equ	?___wmul+0
   172                           	global	___wmul@multiplier
   173  000000                     ___wmul@multiplicand	equ	?___wmul+2
   174                           	global	___wmul@multiplicand
   175  000000                     ___fttol@sign1	equ	??___fttol+0
   176                           	global	___fttol@sign1
   177  000000                     ___fttol@exp1	equ	??___fttol+1
   178                           	global	___fttol@exp1
   179  000000                     ___fttol@lval	equ	??___fttol+2
   180                           	global	___fttol@lval
   181  000000                     ___fttol@f1	equ	?___fttol+0
   182                           	global	___fttol@f1
   183  000000                     LCD_Move@Row	equ	?_LCD_Move+0
   184                           	global	LCD_Move@Row
   185  000000                     LCD_Move@Col	equ	?_LCD_Move+1
   186                           	global	LCD_Move@Col
   187  000000                     ___aldiv@counter	equ	??___aldiv+0
   188                           	global	___aldiv@counter
   189  000000                     ___aldiv@sign	equ	??___aldiv+1
   190                           	global	___aldiv@sign
   191  000000                     ___aldiv@quotient	equ	??___aldiv+2
   192                           	global	___aldiv@quotient
   193  000000                     ___aldiv@dividend	equ	?___aldiv+0
   194                           	global	___aldiv@dividend
   195  000000                     ___aldiv@divisor	equ	?___aldiv+4
   196                           	global	___aldiv@divisor
   197  000000                     LCD_Inst@c	equ	?_LCD_Inst+0
   198                           	global	LCD_Inst@c
   199  000000                     ___almod@sign	equ	??___almod+0
   200                           	global	___almod@sign
   201  000000                     ___almod@counter	equ	??___almod+1
   202                           	global	___almod@counter
   203  000000                     ___almod@dividend	equ	?___almod+0
   204                           	global	___almod@dividend
   205  000000                     ___almod@divisor	equ	?___almod+4
   206                           	global	___almod@divisor
   207  000000                     ___ftpack@arg	equ	?___ftpack+0
   208                           	global	___ftpack@arg
   209  000000                     ___ftpack@exp	equ	?___ftpack+2
   210                           	global	___ftpack@exp
   211  000000                     LCD_Write@c	equ	?_LCD_Write+0
   212                           	global	LCD_Write@c
   213  000000                     ___ftunpack@sign	equ	??___ftunpack+0
   214                           	global	___ftunpack@sign
   215  000000                     ___ftunpack@arg	equ	?___ftunpack+0
   216                           	global	___ftunpack@arg
   217  000000                     ___ftunpack@exp	equ	?___ftunpack+2
   218                           	global	___ftunpack@exp
   219  000000                     Wait_ms@i	equ	??_Wait_ms+0
   220                           	global	Wait_ms@i
   221  000000                     Wait_ms@j	equ	??_Wait_ms+2
   222                           	global	Wait_ms@j
   223  000000                     Wait_ms@X	equ	?_Wait_ms+0
   224                           	global	Wait_ms@X
   225  000000                     LCD_Pause@x	equ	??_LCD_Pause+0
   226                           	global	LCD_Pause@x
   227                           ;Data sizes: Strings 0, constant 25, data 0, bss
                                  0, persistent 0 stack 49
   228                           	global	_main
   229                           	global	??_main
   230                           	global	?_main
   231                                   psect   text0,class=CODE,space=0,reloc=2
   232                           
   233                           	opt lm
   234                           	file	"A:\OneDrive\School\College\Junior\Fa23\Em
                                 b Sys\c\hw5\stepper\stepepr.c"
   235                           	line	21
   236  000000                     	__size_of_main	equ	__end_of_main-_main
   237                           ;stepepr.c: 20: void main(void)
   238                           ;stepepr.c: 21: {
   239                           	
   240  00101C                     _main:		; BSR set to: ?
   241                           
   242                           	opt stack 31
   243                           	line	26
   244  00101C  0E00               	movlw	low(0)
   245  00101E  6E92               	movwf	((c:3986)),c	;volatile
   246                           	line	27
   247                           ;stepepr.c: 27: TRISB = 0xFF;
   248  001020  6893               	setf	((c:3987)),c	;volatile
   249                           	line	28
   250                           ;stepepr.c: 28: TRISC = 0;
   251  001022  0E00               	movlw	low(0)
   252  001024  6E94               	movwf	((c:3988)),c	;volatile
   253                           	line	29
   254                           ;stepepr.c: 29: TRISD = 0;
   255  001026  0E00               	movlw	low(0)
   256  001028  6E95               	movwf	((c:3989)),c	;volatile
   257                           	line	30
   258                           ;stepepr.c: 30: TRISE = 0;
   259  00102A  0E00               	movlw	low(0)
   260  00102C  6E96               	movwf	((c:3990)),c	;volatile
   261                           	line	31
   262                           ;stepepr.c: 31: ADCON1 = 0x0F;
   263  00102E  0100               	movlb	0	; () banked
   264  001030  6FDD               	movwf	(??_main+14+0)&0ffh
   265  001032  0E0F               	movlw	low(0Fh)
   266  001034  6EC1               	movwf	((c:4033)),c
   267  001036  0100               	movlb	0	; () banked
   268  001038  51DD               	movf	(??_main+14+0)&0ffh,w
   269                           	line	32
   270                           ;stepepr.c: 32: LCD_Init();
   271  00103A  EC24  F011         	call	_LCD_Init	;wreg free
   272                           	line	33
   273                           ;stepepr.c: 33: LCD_Move(0,0); for (i=0; i<20; i
                                 ++) LCD_Write(MSG0[i]);
   274  00103E  0100               	movlb	0	; () banked
   275  001040  6FDD               	movwf	(??_main+14+0)&0ffh
   276  001042  0E00               	movlw	low(0)
   277  001044  0100               	movlb	0	; () banked
   278  001046  0100               	movlb	0	; () banked
   279  001048  6FE0               	movwf	(0+(?_LCD_Move+01h))&0ffh
   280  00104A  0100               	movlb	0	; () banked
   281  00104C  51DD               	movf	(??_main+14+0)&0ffh,w
   282  00104E  0100               	movlb	0	; () banked
   283  001050  6FDE               	movwf	(??_main+15+0)&0ffh
   284  001052  0E00               	movlw	low(0)
   285  001054  0100               	movlb	0	; () banked
   286  001056  0100               	movlb	0	; () banked
   287  001058  6FDF               	movwf	((?_LCD_Move))&0ffh
   288  00105A  0100               	movlb	0	; () banked
   289  00105C  51DE               	movf	(??_main+15+0)&0ffh,w
   290  00105E  EC6D  F011         	call	_LCD_Move	;wreg free
   291  001062  0E00               	movlw	low(0)
   292  001064  0100               	movlb	0	; () banked
   293  001066  0100               	movlb	0	; () banked
   294  001068  6FDB               	movwf	((main@i))&0ffh
   295  00106A  0E00               	movlw	high(0)
   296  00106C  0100               	movlb	0	; () banked
   297  00106E  6FDC               	movwf	((main@i+1))&0ffh
   298  001070  0E14               	movlw	014h
   299  001072  0100               	movlb	0	; () banked
   300  001074  0100               	movlb	0	; () banked
   301  001076  5DDB               	subwf	((main@i))&0ffh,w
   302  001078  0E00               	movlw	0
   303  00107A  0100               	movlb	0	; () banked
   304  00107C  59DC               	subwfb	((main@i+1))&0ffh,w
   305  00107E  A0D8               	btfss	status,0
   306  001080  D001               	goto	u931
   307  001082  D001               	goto	u930
   308  001084                     u931:
   309  001084  D001               	goto	l174
   310  001086                     u930:
   311  001086  D020               	goto	l175
   312                           	
   313  001088                     l174:		; BSR set to: ?
   314                           
   315  001088  0E01               	movlw	low((_MSG0))
   316  00108A  0100               	movlb	0	; () banked
   317  00108C  0100               	movlb	0	; () banked
   318  00108E  25DB               	addwf	((main@i))&0ffh,w
   319  001090  6EF6               	movwf	tblptrl
   320  001092  6AF7               	clrf	tblptrh
   321  001094  0E10               	movlw	high((_MSG0))
   322  001096  22F7               	addwfc	tblptrh
   323  001098  6AF8               	clrf	tblptru
   324  00109A  0E00               	movlw	low highword(__mediumconst)
   325  00109C  22F8               	addwfc	tblptru
   326  00109E  0008               	tblrd	*
   327                           	
   328  0010A0  0100               	movlb	0	; () banked
   329  0010A2  CFF5 F0F1          	movff	tablat,(?_LCD_Write)
   330  0010A6  ECBB  F012         	call	_LCD_Write	;wreg free
   331  0010AA  0100               	movlb	0	; () banked
   332  0010AC  0100               	movlb	0	; () banked
   333  0010AE  4BDB               	infsnz	((main@i))&0ffh
   334  0010B0  2BDC               	incf	((main@i+1))&0ffh
   335  0010B2  0E14               	movlw	014h
   336  0010B4  0100               	movlb	0	; () banked
   337  0010B6  0100               	movlb	0	; () banked
   338  0010B8  5DDB               	subwf	((main@i))&0ffh,w
   339  0010BA  0E00               	movlw	0
   340  0010BC  0100               	movlb	0	; () banked
   341  0010BE  59DC               	subwfb	((main@i+1))&0ffh,w
   342  0010C0  A0D8               	btfss	status,0
   343  0010C2  D001               	goto	u941
   344  0010C4  D001               	goto	u940
   345  0010C6                     u941:
   346  0010C6  D7E0               	goto	l174
   347  0010C8                     u940:
   348                           	
   349  0010C8                     l175:		; BSR set to: ?
   350                           
   351                           	line	34
   352                           ;stepepr.c: 34: Wait_ms(500);
   353  0010C8  0EF4               	movlw	low(01F4h)
   354  0010CA  0100               	movlb	0	; () banked
   355  0010CC  0100               	movlb	0	; () banked
   356  0010CE  6FE3               	movwf	((?_Wait_ms))&0ffh
   357  0010D0  0E01               	movlw	high(01F4h)
   358  0010D2  0100               	movlb	0	; () banked
   359  0010D4  6FE4               	movwf	((?_Wait_ms+1))&0ffh
   360  0010D6  ECAF  F011         	call	_Wait_ms	;wreg free
   361                           	line	36
   362                           ;stepepr.c: 36: TRISA = 0xFF;
   363  0010DA  6892               	setf	((c:3986)),c	;volatile
   364                           	line	37
   365                           ;stepepr.c: 37: TRISE = 0x0F;
   366  0010DC  0E0F               	movlw	low(0Fh)
   367  0010DE  6E96               	movwf	((c:3990)),c	;volatile
   368                           	line	38
   369                           ;stepepr.c: 38: ADCON2 = 0x85;
   370  0010E0  0100               	movlb	0	; () banked
   371  0010E2  6FDD               	movwf	(??_main+14+0)&0ffh
   372  0010E4  0E85               	movlw	low(085h)
   373  0010E6  6EC0               	movwf	((c:4032)),c
   374  0010E8  0100               	movlb	0	; () banked
   375  0010EA  51DD               	movf	(??_main+14+0)&0ffh,w
   376                           	line	39
   377                           ;stepepr.c: 39: ADCON1 = 0x07;
   378  0010EC  0100               	movlb	0	; () banked
   379  0010EE  6FDD               	movwf	(??_main+14+0)&0ffh
   380  0010F0  0E07               	movlw	low(07h)
   381  0010F2  6EC1               	movwf	((c:4033)),c
   382  0010F4  0100               	movlb	0	; () banked
   383  0010F6  51DD               	movf	(??_main+14+0)&0ffh,w
   384                           	line	40
   385                           ;stepepr.c: 40: ADCON0 = 0x01;
   386  0010F8  0E01               	movlw	low(01h)
   387  0010FA  6EC2               	movwf	((c:4034)),c	;volatile
   388                           	line	41
   389                           ;stepepr.c: 41: i = 0;
   390  0010FC  0E00               	movlw	low(0)
   391  0010FE  0100               	movlb	0	; () banked
   392  001100  0100               	movlb	0	; () banked
   393  001102  6FDB               	movwf	((main@i))&0ffh
   394  001104  0E00               	movlw	high(0)
   395  001106  0100               	movlb	0	; () banked
   396  001108  6FDC               	movwf	((main@i+1))&0ffh
   397                           	line	42
   398                           ;stepepr.c: 42: X = 0;
   399  00110A  0E00               	movlw	low(0)
   400  00110C  0100               	movlb	0	; () banked
   401  00110E  0100               	movlb	0	; () banked
   402  001110  6FD5               	movwf	((main@X))&0ffh
   403  001112  0E00               	movlw	high(0)
   404  001114  0100               	movlb	0	; () banked
   405  001116  6FD6               	movwf	((main@X+1))&0ffh
   406                           	line	43
   407                           ;stepepr.c: 43: Y = 0;
   408  001118  0E00               	movlw	low(0)
   409  00111A  0100               	movlb	0	; () banked
   410  00111C  0100               	movlb	0	; () banked
   411  00111E  6FD7               	movwf	((main@Y))&0ffh
   412  001120  0E00               	movlw	high(0)
   413  001122  0100               	movlb	0	; () banked
   414  001124  6FD8               	movwf	((main@Y+1))&0ffh
   415                           	line	44
   416                           ;stepepr.c: 44: Z = 0;
   417  001126  0E00               	movlw	low(0)
   418  001128  0100               	movlb	0	; () banked
   419  00112A  0100               	movlb	0	; () banked
   420  00112C  6FD9               	movwf	((main@Z))&0ffh
   421  00112E  0E00               	movlw	high(0)
   422  001130  0100               	movlb	0	; () banked
   423  001132  6FDA               	movwf	((main@Z+1))&0ffh
   424                           	line	45
   425                           ;stepepr.c: 45: T = 0;
   426  001134  0E00               	movlw	low(0)
   427  001136  0100               	movlb	0	; () banked
   428  001138  0100               	movlb	0	; () banked
   429  00113A  6FCF               	movwf	((main@T))&0ffh
   430  00113C  0E00               	movlw	high(0)
   431  00113E  0100               	movlb	0	; () banked
   432  001140  6FD0               	movwf	((main@T+1))&0ffh
   433                           	line	46
   434                           ;stepepr.c: 46: while(1) {
   435                           	
   436  001142                     l178:		; BSR set to: ?
   437                           
   438                           	line	47
   439                           ;stepepr.c: 47: A2D = A2D_Read(0) / 51.15 + 1;
   440  001142  0100               	movlb	0	; () banked
   441  001144  6FDD               	movwf	(??_main+14+0)&0ffh
   442  001146  0E00               	movlw	low(0)
   443  001148  0100               	movlb	0	; () banked
   444  00114A  0100               	movlb	0	; () banked
   445  00114C  6FDF               	movwf	((?_A2D_Read))&0ffh
   446  00114E  0100               	movlb	0	; () banked
   447  001150  51DD               	movf	(??_main+14+0)&0ffh,w
   448  001152  EC29  F012         	call	_A2D_Read	;wreg free
   449  001156  C0DF  F0DF         	movff	0+?_A2D_Read,(?___lwtoft)
   450  00115A  C0E0  F0E0         	movff	1+?_A2D_Read,(?___lwtoft+1)
   451  00115E  ECEE  F011         	call	___lwtoft	;wreg free
   452  001162  C0DF  F0DF         	movff	0+?___lwtoft,(?___ftdiv)
   453  001166  C0E0  F0E0         	movff	1+?___lwtoft,(?___ftdiv+1)
   454  00116A  C0E1  F0E1         	movff	2+?___lwtoft,(?___ftdiv+2)
   455  00116E  0E9A               	movlw	low(float24(51.149999999999999))
   456  001170  0100               	movlb	0	; () banked
   457  001172  0100               	movlb	0	; () banked
   458  001174  6FE2               	movwf	(0+(?___ftdiv+03h))&0ffh
   459  001176  0E4C               	movlw	high(float24(51.149999999999999))
   460  001178  0100               	movlb	0	; () banked
   461  00117A  0100               	movlb	0	; () banked
   462  00117C  6FE3               	movwf	(1+(?___ftdiv+03h))&0ffh
   463  00117E  0E42               	movlw	low highword(float24(51.149999999999999))
   464  001180  0100               	movlb	0	; () banked
   465  001182  0100               	movlb	0	; () banked
   466  001184  6FE4               	movwf	(2+(?___ftdiv+03h))&0ffh
   467                           
   468  001186  EC3F  F00D         	call	___ftdiv	;wreg free
   469  00118A  C0DF  F0DF         	movff	0+?___ftdiv,(?___ftadd)
   470  00118E  C0E0  F0E0         	movff	1+?___ftdiv,(?___ftadd+1)
   471  001192  C0E1  F0E1         	movff	2+?___ftdiv,(?___ftadd+2)
   472  001196  0E00               	movlw	low(float24(1.0000000000000000))
   473  001198  0100               	movlb	0	; () banked
   474  00119A  0100               	movlb	0	; () banked
   475  00119C  6FE2               	movwf	(0+(?___ftadd+03h))&0ffh
   476  00119E  0E80               	movlw	high(float24(1.0000000000000000))
   477  0011A0  0100               	movlb	0	; () banked
   478  0011A2  0100               	movlb	0	; () banked
   479  0011A4  6FE3               	movwf	(1+(?___ftadd+03h))&0ffh
   480  0011A6  0E3F               	movlw	low highword(float24(1.0000000000000000))
   481  0011A8  0100               	movlb	0	; () banked
   482  0011AA  0100               	movlb	0	; () banked
   483  0011AC  6FE4               	movwf	(2+(?___ftadd+03h))&0ffh
   484                           
   485  0011AE  ECC0  F00A         	call	___ftadd	;wreg free
   486  0011B2  C0DF  F0DF         	movff	0+?___ftadd,(?___fttol)
   487  0011B6  C0E0  F0E0         	movff	1+?___ftadd,(?___fttol+1)
   488  0011BA  C0E1  F0E1         	movff	2+?___ftadd,(?___fttol+2)
   489  0011BE  EC8E  F00F         	call	___fttol	;wreg free
   490  0011C2  C0DF  F0D1         	movff	0+?___fttol,(main@A2D)
   491  0011C6  C0E0  F0D2         	movff	1+?___fttol,(main@A2D+1)
   492                           	line	48
   493                           ;stepepr.c: 48: if(RB0) {
   494  0011CA  A081               	btfss	c:(31752/8),(31752)&7	;volatile
   495  0011CC  D001               	goto	u951
   496  0011CE  D001               	goto	u950
   497  0011D0                     u951:
   498  0011D0  D015               	goto	l180
   499  0011D2                     u950:
   500                           	line	49
   501                           ;stepepr.c: 49: T = Z;
   502  0011D2  C0D9  F0CF         	movff	(main@Z),(main@T)
   503  0011D6  C0DA  F0D0         	movff	(main@Z+1),(main@T+1)
   504                           	line	50
   505                           ;stepepr.c: 50: Z = Y;
   506  0011DA  C0D7  F0D9         	movff	(main@Y),(main@Z)
   507  0011DE  C0D8  F0DA         	movff	(main@Y+1),(main@Z+1)
   508                           	line	51
   509                           ;stepepr.c: 51: Y = X;
   510  0011E2  C0D5  F0D7         	movff	(main@X),(main@Y)
   511  0011E6  C0D6  F0D8         	movff	(main@X+1),(main@Y+1)
   512                           	line	52
   513                           ;stepepr.c: 52: X = A2D;
   514  0011EA  C0D1  F0D5         	movff	(main@A2D),(main@X)
   515  0011EE  C0D2  F0D6         	movff	(main@A2D+1),(main@X+1)
   516                           	line	53
   517                           ;stepepr.c: 53: while(RB0);
   518  0011F2  D000               	goto	l181
   519                           	
   520  0011F4                     l181:		; BSR set to: ?
   521                           
   522  0011F4  B081               	btfsc	c:(31752/8),(31752)&7	;volatile
   523  0011F6  D001               	goto	u961
   524  0011F8  D001               	goto	u960
   525  0011FA                     u961:
   526  0011FA  D7FC               	goto	l181
   527  0011FC                     u960:
   528                           	
   529  0011FC                     l183:		; BSR set to: ?
   530                           
   531                           	line	54
   532                           	
   533  0011FC                     l180:		; BSR set to: ?
   534                           
   535                           	line	55
   536                           ;stepepr.c: 54: }
   537                           ;stepepr.c: 55: if(RB1) {
   538  0011FC  A281               	btfss	c:(31753/8),(31753)&7	;volatile
   539  0011FE  D001               	goto	u971
   540  001200  D001               	goto	u970
   541  001202                     u971:
   542  001202  D0E7               	goto	l184
   543  001204                     u970:
   544                           	line	56
   545                           ;stepepr.c: 56: if( (X == 1)*(Y == 2)*(Z == 3) )
                                  {
   546  001204  0100               	movlb	0	; () banked
   547  001206  0100               	movlb	0	; () banked
   548  001208  51D7               	movf	((main@Y))&0ffh,w
   549  00120A  0A02               	xorlw	2
   550  00120C  11D8               	iorwf ((main@Y+1))&0ffh,w
   551                           
   552  00120E  0E00               	movlw	0
   553  001210  B4D8               	btfsc	status,2
   554  001212  0E01               	movlw	1
   555  001214  0100               	movlb	0	; () banked
   556  001216  0100               	movlb	0	; () banked
   557  001218  6FE1               	movwf	(0+(?___wmul+02h))&0ffh
   558  00121A  0100               	movlb	0	; () banked
   559  00121C  6BE2               	clrf	(1+(?___wmul+02h))&0ffh
   560  00121E  0100               	movlb	0	; () banked
   561  001220  0100               	movlb	0	; () banked
   562  001222  05D5               	decf	((main@X))&0ffh,w
   563  001224  11D6               	iorwf ((main@X+1))&0ffh,w
   564                           
   565  001226  0E00               	movlw	0
   566  001228  B4D8               	btfsc	status,2
   567  00122A  0E01               	movlw	1
   568  00122C  0100               	movlb	0	; () banked
   569  00122E  0100               	movlb	0	; () banked
   570  001230  6FDF               	movwf	((?___wmul))&0ffh
   571  001232  0100               	movlb	0	; () banked
   572  001234  6BE0               	clrf	((?___wmul+1))&0ffh
   573  001236  EC61  F012         	call	___wmul	;wreg free
   574  00123A  C0DF  F0DF         	movff	0+?___wmul,(?___wmul)
   575  00123E  C0E0  F0E0         	movff	1+?___wmul,(?___wmul+1)
   576  001242  0100               	movlb	0	; () banked
   577  001244  0100               	movlb	0	; () banked
   578  001246  51D9               	movf	((main@Z))&0ffh,w
   579  001248  0A03               	xorlw	3
   580  00124A  11DA               	iorwf ((main@Z+1))&0ffh,w
   581                           
   582  00124C  0E00               	movlw	0
   583  00124E  B4D8               	btfsc	status,2
   584  001250  0E01               	movlw	1
   585  001252  0100               	movlb	0	; () banked
   586  001254  0100               	movlb	0	; () banked
   587  001256  6FE1               	movwf	(0+(?___wmul+02h))&0ffh
   588  001258  0100               	movlb	0	; () banked
   589  00125A  6BE2               	clrf	(1+(?___wmul+02h))&0ffh
   590  00125C  EC61  F012         	call	___wmul	;wreg free
   591  001260  0100               	movlb	0	; () banked
   592  001262  51E0               	movf	(1+?___wmul)&0ffh,w
   593  001264  11DF               	iorwf (0+?___wmul)&0ffh,w
   594                           
   595  001266  B4D8               	btfsc	status,2
   596  001268  D001               	goto	u981
   597  00126A  D001               	goto	u980
   598  00126C                     u981:
   599  00126C  D09D               	goto	l185
   600  00126E                     u980:
   601                           	line	57
   602                           ;stepepr.c: 57: for(i=0; i<100; i++) {
   603  00126E  0E00               	movlw	low(0)
   604  001270  0100               	movlb	0	; () banked
   605  001272  0100               	movlb	0	; () banked
   606  001274  6FDB               	movwf	((main@i))&0ffh
   607  001276  0E00               	movlw	high(0)
   608  001278  0100               	movlb	0	; () banked
   609  00127A  6FDC               	movwf	((main@i+1))&0ffh
   610  00127C  0E64               	movlw	064h
   611  00127E  0100               	movlb	0	; () banked
   612  001280  0100               	movlb	0	; () banked
   613  001282  5DDB               	subwf	((main@i))&0ffh,w
   614  001284  0E00               	movlw	0
   615  001286  0100               	movlb	0	; () banked
   616  001288  59DC               	subwfb	((main@i+1))&0ffh,w
   617  00128A  A0D8               	btfss	status,0
   618  00128C  D001               	goto	u991
   619  00128E  D001               	goto	u990
   620  001290                     u991:
   621  001290  D001               	goto	l186
   622  001292                     u990:
   623  001292  D037               	goto	l187
   624                           	
   625  001294                     l186:		; BSR set to: ?
   626                           
   627                           	line	58
   628                           ;stepepr.c: 58: STEP = STEP + 1;
   629  001294  0E01               	movlw	low(01h)
   630  001296  0100               	movlb	0	; () banked
   631  001298  0100               	movlb	0	; () banked
   632  00129A  25D3               	addwf	((main@STEP))&0ffh,w
   633  00129C  0100               	movlb	0	; () banked
   634                           	
   635  00129E  0100               	movlb	0	; () banked
   636  0012A0  6FD3               	movwf	((main@STEP))&0ffh
   637  0012A2  0E00               	movlw	high(01h)
   638  0012A4  0100               	movlb	0	; () banked
   639  0012A6  0100               	movlb	0	; () banked
   640  0012A8  21D4               	addwfc	((main@STEP+1))&0ffh,w
   641  0012AA  0100               	movlb	0	; () banked
   642  0012AC  6FD4               	movwf	1+((main@STEP))&0ffh
   643                           	line	59
   644                           ;stepepr.c: 59: PORTC = TABLE[STEP % 4];
   645  0012AE  C0D3  F0DD         	movff	(main@STEP),??_main+14+0
   646  0012B2  0E03               	movlw	03h
   647  0012B4  0100               	movlb	0	; () banked
   648  0012B6  17DD               	andwf	(??_main+14+0)&0ffh
   649  0012B8  0E16               	movlw	low((_TABLE))
   650  0012BA  0100               	movlb	0	; () banked
   651  0012BC  25DD               	addwf	(??_main+14+0)&0ffh,w
   652  0012BE  6EF6               	movwf	tblptrl
   653  0012C0  6AF7               	clrf	tblptrh
   654  0012C2  0E10               	movlw	high((_TABLE))
   655  0012C4  22F7               	addwfc	tblptrh
   656  0012C6  6AF8               	clrf	tblptru
   657  0012C8  0E00               	movlw	low highword(__mediumconst)
   658  0012CA  22F8               	addwfc	tblptru
   659  0012CC  0008               	tblrd	*
   660                           	
   661  0012CE  CFF5 FF82          	movff	tablat,(c:3970)	;volatile
   662                           	line	60
   663                           ;stepepr.c: 60: Wait_ms(10);
   664  0012D2  0E0A               	movlw	low(0Ah)
   665  0012D4  0100               	movlb	0	; () banked
   666  0012D6  0100               	movlb	0	; () banked
   667  0012D8  6FE3               	movwf	((?_Wait_ms))&0ffh
   668  0012DA  0E00               	movlw	high(0Ah)
   669  0012DC  0100               	movlb	0	; () banked
   670  0012DE  6FE4               	movwf	((?_Wait_ms+1))&0ffh
   671  0012E0  ECAF  F011         	call	_Wait_ms	;wreg free
   672                           	line	57
   673  0012E4  0100               	movlb	0	; () banked
   674  0012E6  0100               	movlb	0	; () banked
   675  0012E8  4BDB               	infsnz	((main@i))&0ffh
   676  0012EA  2BDC               	incf	((main@i+1))&0ffh
   677  0012EC  0E64               	movlw	064h
   678  0012EE  0100               	movlb	0	; () banked
   679  0012F0  0100               	movlb	0	; () banked
   680  0012F2  5DDB               	subwf	((main@i))&0ffh,w
   681  0012F4  0E00               	movlw	0
   682  0012F6  0100               	movlb	0	; () banked
   683  0012F8  59DC               	subwfb	((main@i+1))&0ffh,w
   684  0012FA  A0D8               	btfss	status,0
   685  0012FC  D001               	goto	u1001
   686  0012FE  D001               	goto	u1000
   687  001300                     u1001:
   688  001300  D7C9               	goto	l186
   689  001302                     u1000:
   690                           	
   691  001302                     l187:		; BSR set to: ?
   692                           
   693                           	line	62
   694                           ;stepepr.c: 61: }
   695                           ;stepepr.c: 62: Wait_ms(2000);
   696  001302  0ED0               	movlw	low(07D0h)
   697  001304  0100               	movlb	0	; () banked
   698  001306  0100               	movlb	0	; () banked
   699  001308  6FE3               	movwf	((?_Wait_ms))&0ffh
   700  00130A  0E07               	movlw	high(07D0h)
   701  00130C  0100               	movlb	0	; () banked
   702  00130E  6FE4               	movwf	((?_Wait_ms+1))&0ffh
   703  001310  ECAF  F011         	call	_Wait_ms	;wreg free
   704                           	line	63
   705                           ;stepepr.c: 63: for(i=0; i<100; i++) {
   706  001314  0E00               	movlw	low(0)
   707  001316  0100               	movlb	0	; () banked
   708  001318  0100               	movlb	0	; () banked
   709  00131A  6FDB               	movwf	((main@i))&0ffh
   710  00131C  0E00               	movlw	high(0)
   711  00131E  0100               	movlb	0	; () banked
   712  001320  6FDC               	movwf	((main@i+1))&0ffh
   713  001322  0E64               	movlw	064h
   714  001324  0100               	movlb	0	; () banked
   715  001326  0100               	movlb	0	; () banked
   716  001328  5DDB               	subwf	((main@i))&0ffh,w
   717  00132A  0E00               	movlw	0
   718  00132C  0100               	movlb	0	; () banked
   719  00132E  59DC               	subwfb	((main@i+1))&0ffh,w
   720  001330  A0D8               	btfss	status,0
   721  001332  D001               	goto	u1011
   722  001334  D001               	goto	u1010
   723  001336                     u1011:
   724  001336  D001               	goto	l189
   725  001338                     u1010:
   726  001338  D037               	goto	l185
   727                           	
   728  00133A                     l189:		; BSR set to: ?
   729                           
   730                           	line	64
   731                           ;stepepr.c: 64: STEP = STEP - 1;
   732  00133A  0EFF               	movlw	low(-1)
   733  00133C  0100               	movlb	0	; () banked
   734  00133E  0100               	movlb	0	; () banked
   735  001340  25D3               	addwf	((main@STEP))&0ffh,w
   736  001342  0100               	movlb	0	; () banked
   737                           	
   738  001344  0100               	movlb	0	; () banked
   739  001346  6FD3               	movwf	((main@STEP))&0ffh
   740  001348  0EFF               	movlw	high(-1)
   741  00134A  0100               	movlb	0	; () banked
   742  00134C  0100               	movlb	0	; () banked
   743  00134E  21D4               	addwfc	((main@STEP+1))&0ffh,w
   744  001350  0100               	movlb	0	; () banked
   745  001352  6FD4               	movwf	1+((main@STEP))&0ffh
   746                           	line	65
   747                           ;stepepr.c: 65: PORTC = TABLE[STEP % 4];
   748  001354  C0D3  F0DD         	movff	(main@STEP),??_main+14+0
   749  001358  0E03               	movlw	03h
   750  00135A  0100               	movlb	0	; () banked
   751  00135C  17DD               	andwf	(??_main+14+0)&0ffh
   752  00135E  0E16               	movlw	low((_TABLE))
   753  001360  0100               	movlb	0	; () banked
   754  001362  25DD               	addwf	(??_main+14+0)&0ffh,w
   755  001364  6EF6               	movwf	tblptrl
   756  001366  6AF7               	clrf	tblptrh
   757  001368  0E10               	movlw	high((_TABLE))
   758  00136A  22F7               	addwfc	tblptrh
   759  00136C  6AF8               	clrf	tblptru
   760  00136E  0E00               	movlw	low highword(__mediumconst)
   761  001370  22F8               	addwfc	tblptru
   762  001372  0008               	tblrd	*
   763                           	
   764  001374  CFF5 FF82          	movff	tablat,(c:3970)	;volatile
   765                           	line	66
   766                           ;stepepr.c: 66: Wait_ms(10);
   767  001378  0E0A               	movlw	low(0Ah)
   768  00137A  0100               	movlb	0	; () banked
   769  00137C  0100               	movlb	0	; () banked
   770  00137E  6FE3               	movwf	((?_Wait_ms))&0ffh
   771  001380  0E00               	movlw	high(0Ah)
   772  001382  0100               	movlb	0	; () banked
   773  001384  6FE4               	movwf	((?_Wait_ms+1))&0ffh
   774  001386  ECAF  F011         	call	_Wait_ms	;wreg free
   775                           	line	63
   776  00138A  0100               	movlb	0	; () banked
   777  00138C  0100               	movlb	0	; () banked
   778  00138E  4BDB               	infsnz	((main@i))&0ffh
   779  001390  2BDC               	incf	((main@i+1))&0ffh
   780  001392  0E64               	movlw	064h
   781  001394  0100               	movlb	0	; () banked
   782  001396  0100               	movlb	0	; () banked
   783  001398  5DDB               	subwf	((main@i))&0ffh,w
   784  00139A  0E00               	movlw	0
   785  00139C  0100               	movlb	0	; () banked
   786  00139E  59DC               	subwfb	((main@i+1))&0ffh,w
   787  0013A0  A0D8               	btfss	status,0
   788  0013A2  D001               	goto	u1021
   789  0013A4  D001               	goto	u1020
   790  0013A6                     u1021:
   791  0013A6  D7C9               	goto	l189
   792  0013A8                     u1020:
   793                           	
   794  0013A8                     l190:		; BSR set to: ?
   795                           
   796                           	line	68
   797                           	
   798  0013A8                     l185:		; BSR set to: ?
   799                           
   800                           	line	69
   801                           ;stepepr.c: 67: }
   802                           ;stepepr.c: 68: }
   803                           ;stepepr.c: 69: X = 0;
   804  0013A8  0E00               	movlw	low(0)
   805  0013AA  0100               	movlb	0	; () banked
   806  0013AC  0100               	movlb	0	; () banked
   807  0013AE  6FD5               	movwf	((main@X))&0ffh
   808  0013B0  0E00               	movlw	high(0)
   809  0013B2  0100               	movlb	0	; () banked
   810  0013B4  6FD6               	movwf	((main@X+1))&0ffh
   811                           	line	70
   812                           ;stepepr.c: 70: Y = 0;
   813  0013B6  0E00               	movlw	low(0)
   814  0013B8  0100               	movlb	0	; () banked
   815  0013BA  0100               	movlb	0	; () banked
   816  0013BC  6FD7               	movwf	((main@Y))&0ffh
   817  0013BE  0E00               	movlw	high(0)
   818  0013C0  0100               	movlb	0	; () banked
   819  0013C2  6FD8               	movwf	((main@Y+1))&0ffh
   820                           	line	71
   821                           ;stepepr.c: 71: Z = 0;
   822  0013C4  0E00               	movlw	low(0)
   823  0013C6  0100               	movlb	0	; () banked
   824  0013C8  0100               	movlb	0	; () banked
   825  0013CA  6FD9               	movwf	((main@Z))&0ffh
   826  0013CC  0E00               	movlw	high(0)
   827  0013CE  0100               	movlb	0	; () banked
   828  0013D0  6FDA               	movwf	((main@Z+1))&0ffh
   829                           	line	72
   830                           	
   831  0013D2                     l184:		; BSR set to: ?
   832                           
   833                           	line	73
   834                           ;stepepr.c: 72: }
   835                           ;stepepr.c: 73: LCD_Move(1,0); LCD_Out(A2D, 2, 0
                                 );
   836  0013D2  0100               	movlb	0	; () banked
   837  0013D4  6FDD               	movwf	(??_main+14+0)&0ffh
   838  0013D6  0E00               	movlw	low(0)
   839  0013D8  0100               	movlb	0	; () banked
   840  0013DA  0100               	movlb	0	; () banked
   841  0013DC  6FE0               	movwf	(0+(?_LCD_Move+01h))&0ffh
   842  0013DE  0100               	movlb	0	; () banked
   843  0013E0  51DD               	movf	(??_main+14+0)&0ffh,w
   844  0013E2  0100               	movlb	0	; () banked
   845  0013E4  6FDE               	movwf	(??_main+15+0)&0ffh
   846  0013E6  0E01               	movlw	low(01h)
   847  0013E8  0100               	movlb	0	; () banked
   848  0013EA  0100               	movlb	0	; () banked
   849  0013EC  6FDF               	movwf	((?_LCD_Move))&0ffh
   850  0013EE  0100               	movlb	0	; () banked
   851  0013F0  51DE               	movf	(??_main+15+0)&0ffh,w
   852  0013F2  EC6D  F011         	call	_LCD_Move	;wreg free
   853  0013F6  0100               	movlb	0	; () banked
   854  0013F8  6FDD               	movwf	(??_main+14+0)&0ffh
   855  0013FA  0E00               	movlw	low(0)
   856  0013FC  0100               	movlb	0	; () banked
   857  0013FE  0100               	movlb	0	; () banked
   858  001400  6FE4               	movwf	(0+(?_LCD_Out+05h))&0ffh
   859  001402  0100               	movlb	0	; () banked
   860  001404  51DD               	movf	(??_main+14+0)&0ffh,w
   861  001406  0100               	movlb	0	; () banked
   862  001408  6FDE               	movwf	(??_main+15+0)&0ffh
   863  00140A  0E02               	movlw	low(02h)
   864  00140C  0100               	movlb	0	; () banked
   865  00140E  0100               	movlb	0	; () banked
   866  001410  6FE3               	movwf	(0+(?_LCD_Out+04h))&0ffh
   867  001412  0100               	movlb	0	; () banked
   868  001414  51DE               	movf	(??_main+15+0)&0ffh,w
   869  001416  0100               	movlb	0	; () banked
   870  001418  0100               	movlb	0	; () banked
   871  00141A  C0D1  F0DF         	movff	(main@A2D),(?_LCD_Out)
   872  00141E  0100               	movlb	0	; () banked
   873  001420  0100               	movlb	0	; () banked
   874  001422  C0D2  F0E0         	movff	(main@A2D+1),(?_LCD_Out+1)
   875  001426  0100               	movlb	0	; () banked
   876  001428  0E00               	movlw	0
   877  00142A  0100               	movlb	0	; () banked
   878  00142C  BFE0               	btfsc	((?_LCD_Out+1))&0ffh,7
   879  00142E  0EFF               	movlw	-1
   880  001430  0100               	movlb	0	; () banked
   881  001432  6FE1               	movwf	((?_LCD_Out+2))&0ffh
   882  001434  0100               	movlb	0	; () banked
   883  001436  6FE2               	movwf	((?_LCD_Out+3))&0ffh
   884  001438  EC06  F00E         	call	_LCD_Out	;wreg free
   885                           	line	74
   886                           ;stepepr.c: 74: LCD_Move(1,4); LCD_Out(X, 2, 0);
   887  00143C  0100               	movlb	0	; () banked
   888  00143E  6FDD               	movwf	(??_main+14+0)&0ffh
   889  001440  0E04               	movlw	low(04h)
   890  001442  0100               	movlb	0	; () banked
   891  001444  0100               	movlb	0	; () banked
   892  001446  6FE0               	movwf	(0+(?_LCD_Move+01h))&0ffh
   893  001448  0100               	movlb	0	; () banked
   894  00144A  51DD               	movf	(??_main+14+0)&0ffh,w
   895  00144C  0100               	movlb	0	; () banked
   896  00144E  6FDE               	movwf	(??_main+15+0)&0ffh
   897  001450  0E01               	movlw	low(01h)
   898  001452  0100               	movlb	0	; () banked
   899  001454  0100               	movlb	0	; () banked
   900  001456  6FDF               	movwf	((?_LCD_Move))&0ffh
   901  001458  0100               	movlb	0	; () banked
   902  00145A  51DE               	movf	(??_main+15+0)&0ffh,w
   903  00145C  EC6D  F011         	call	_LCD_Move	;wreg free
   904  001460  0100               	movlb	0	; () banked
   905  001462  6FDD               	movwf	(??_main+14+0)&0ffh
   906  001464  0E00               	movlw	low(0)
   907  001466  0100               	movlb	0	; () banked
   908  001468  0100               	movlb	0	; () banked
   909  00146A  6FE4               	movwf	(0+(?_LCD_Out+05h))&0ffh
   910  00146C  0100               	movlb	0	; () banked
   911  00146E  51DD               	movf	(??_main+14+0)&0ffh,w
   912  001470  0100               	movlb	0	; () banked
   913  001472  6FDE               	movwf	(??_main+15+0)&0ffh
   914  001474  0E02               	movlw	low(02h)
   915  001476  0100               	movlb	0	; () banked
   916  001478  0100               	movlb	0	; () banked
   917  00147A  6FE3               	movwf	(0+(?_LCD_Out+04h))&0ffh
   918  00147C  0100               	movlb	0	; () banked
   919  00147E  51DE               	movf	(??_main+15+0)&0ffh,w
   920  001480  0100               	movlb	0	; () banked
   921  001482  0100               	movlb	0	; () banked
   922  001484  C0D5  F0DF         	movff	(main@X),(?_LCD_Out)
   923  001488  0100               	movlb	0	; () banked
   924  00148A  0100               	movlb	0	; () banked
   925  00148C  C0D6  F0E0         	movff	(main@X+1),(?_LCD_Out+1)
   926  001490  0100               	movlb	0	; () banked
   927  001492  0E00               	movlw	0
   928  001494  0100               	movlb	0	; () banked
   929  001496  BFE0               	btfsc	((?_LCD_Out+1))&0ffh,7
   930  001498  0EFF               	movlw	-1
   931  00149A  0100               	movlb	0	; () banked
   932  00149C  6FE1               	movwf	((?_LCD_Out+2))&0ffh
   933  00149E  0100               	movlb	0	; () banked
   934  0014A0  6FE2               	movwf	((?_LCD_Out+3))&0ffh
   935  0014A2  EC06  F00E         	call	_LCD_Out	;wreg free
   936                           	line	75
   937                           ;stepepr.c: 75: LCD_Move(1,8); LCD_Out(Y, 2, 0);
   938  0014A6  0100               	movlb	0	; () banked
   939  0014A8  6FDD               	movwf	(??_main+14+0)&0ffh
   940  0014AA  0E08               	movlw	low(08h)
   941  0014AC  0100               	movlb	0	; () banked
   942  0014AE  0100               	movlb	0	; () banked
   943  0014B0  6FE0               	movwf	(0+(?_LCD_Move+01h))&0ffh
   944  0014B2  0100               	movlb	0	; () banked
   945  0014B4  51DD               	movf	(??_main+14+0)&0ffh,w
   946  0014B6  0100               	movlb	0	; () banked
   947  0014B8  6FDE               	movwf	(??_main+15+0)&0ffh
   948  0014BA  0E01               	movlw	low(01h)
   949  0014BC  0100               	movlb	0	; () banked
   950  0014BE  0100               	movlb	0	; () banked
   951  0014C0  6FDF               	movwf	((?_LCD_Move))&0ffh
   952  0014C2  0100               	movlb	0	; () banked
   953  0014C4  51DE               	movf	(??_main+15+0)&0ffh,w
   954  0014C6  EC6D  F011         	call	_LCD_Move	;wreg free
   955  0014CA  0100               	movlb	0	; () banked
   956  0014CC  6FDD               	movwf	(??_main+14+0)&0ffh
   957  0014CE  0E00               	movlw	low(0)
   958  0014D0  0100               	movlb	0	; () banked
   959  0014D2  0100               	movlb	0	; () banked
   960  0014D4  6FE4               	movwf	(0+(?_LCD_Out+05h))&0ffh
   961  0014D6  0100               	movlb	0	; () banked
   962  0014D8  51DD               	movf	(??_main+14+0)&0ffh,w
   963  0014DA  0100               	movlb	0	; () banked
   964  0014DC  6FDE               	movwf	(??_main+15+0)&0ffh
   965  0014DE  0E02               	movlw	low(02h)
   966  0014E0  0100               	movlb	0	; () banked
   967  0014E2  0100               	movlb	0	; () banked
   968  0014E4  6FE3               	movwf	(0+(?_LCD_Out+04h))&0ffh
   969  0014E6  0100               	movlb	0	; () banked
   970  0014E8  51DE               	movf	(??_main+15+0)&0ffh,w
   971  0014EA  0100               	movlb	0	; () banked
   972  0014EC  0100               	movlb	0	; () banked
   973  0014EE  C0D7  F0DF         	movff	(main@Y),(?_LCD_Out)
   974  0014F2  0100               	movlb	0	; () banked
   975  0014F4  0100               	movlb	0	; () banked
   976  0014F6  C0D8  F0E0         	movff	(main@Y+1),(?_LCD_Out+1)
   977  0014FA  0100               	movlb	0	; () banked
   978  0014FC  0E00               	movlw	0
   979  0014FE  0100               	movlb	0	; () banked
   980  001500  BFE0               	btfsc	((?_LCD_Out+1))&0ffh,7
   981  001502  0EFF               	movlw	-1
   982  001504  0100               	movlb	0	; () banked
   983  001506  6FE1               	movwf	((?_LCD_Out+2))&0ffh
   984  001508  0100               	movlb	0	; () banked
   985  00150A  6FE2               	movwf	((?_LCD_Out+3))&0ffh
   986  00150C  EC06  F00E         	call	_LCD_Out	;wreg free
   987                           	line	76
   988                           ;stepepr.c: 76: LCD_Move(1,12); LCD_Out(Z, 2, 0)
                                 ;
   989  001510  0100               	movlb	0	; () banked
   990  001512  6FDD               	movwf	(??_main+14+0)&0ffh
   991  001514  0E0C               	movlw	low(0Ch)
   992  001516  0100               	movlb	0	; () banked
   993  001518  0100               	movlb	0	; () banked
   994  00151A  6FE0               	movwf	(0+(?_LCD_Move+01h))&0ffh
   995  00151C  0100               	movlb	0	; () banked
   996  00151E  51DD               	movf	(??_main+14+0)&0ffh,w
   997  001520  0100               	movlb	0	; () banked
   998  001522  6FDE               	movwf	(??_main+15+0)&0ffh
   999  001524  0E01               	movlw	low(01h)
  1000  001526  0100               	movlb	0	; () banked
  1001  001528  0100               	movlb	0	; () banked
  1002  00152A  6FDF               	movwf	((?_LCD_Move))&0ffh
  1003  00152C  0100               	movlb	0	; () banked
  1004  00152E  51DE               	movf	(??_main+15+0)&0ffh,w
  1005  001530  EC6D  F011         	call	_LCD_Move	;wreg free
  1006  001534  0100               	movlb	0	; () banked
  1007  001536  6FDD               	movwf	(??_main+14+0)&0ffh
  1008  001538  0E00               	movlw	low(0)
  1009  00153A  0100               	movlb	0	; () banked
  1010  00153C  0100               	movlb	0	; () banked
  1011  00153E  6FE4               	movwf	(0+(?_LCD_Out+05h))&0ffh
  1012  001540  0100               	movlb	0	; () banked
  1013  001542  51DD               	movf	(??_main+14+0)&0ffh,w
  1014  001544  0100               	movlb	0	; () banked
  1015  001546  6FDE               	movwf	(??_main+15+0)&0ffh
  1016  001548  0E02               	movlw	low(02h)
  1017  00154A  0100               	movlb	0	; () banked
  1018  00154C  0100               	movlb	0	; () banked
  1019  00154E  6FE3               	movwf	(0+(?_LCD_Out+04h))&0ffh
  1020  001550  0100               	movlb	0	; () banked
  1021  001552  51DE               	movf	(??_main+15+0)&0ffh,w
  1022  001554  0100               	movlb	0	; () banked
  1023  001556  0100               	movlb	0	; () banked
  1024  001558  C0D9  F0DF         	movff	(main@Z),(?_LCD_Out)
  1025  00155C  0100               	movlb	0	; () banked
  1026  00155E  0100               	movlb	0	; () banked
  1027  001560  C0DA  F0E0         	movff	(main@Z+1),(?_LCD_Out+1)
  1028  001564  0100               	movlb	0	; () banked
  1029  001566  0E00               	movlw	0
  1030  001568  0100               	movlb	0	; () banked
  1031  00156A  BFE0               	btfsc	((?_LCD_Out+1))&0ffh,7
  1032  00156C  0EFF               	movlw	-1
  1033  00156E  0100               	movlb	0	; () banked
  1034  001570  6FE1               	movwf	((?_LCD_Out+2))&0ffh
  1035  001572  0100               	movlb	0	; () banked
  1036  001574  6FE2               	movwf	((?_LCD_Out+3))&0ffh
  1037  001576  EC06  F00E         	call	_LCD_Out	;wreg free
  1038                           	line	77
  1039                           	
  1040  00157A                     l177:		; BSR set to: ?
  1041                           
  1042                           	line	46
  1043  00157A  D5E3               	goto	l178
  1044                           	global	start
  1045  00157C  EF00  F004         	goto	start
  1046                           	opt stack 0
  1047                           GLOBAL __end_of_main
  1048  001580                     	__end_of_main:
  1049                           	FNSIZE	_main,16,0
  1050                           ; =============== function _main ends ==========
                                 ==
  1051                           
  1052                                   psect   text1,class=CODE,space=0,reloc=2
  1053                           	line	78
  1054                           
  1055                           	opt lm
  1056                           	signat	_main,88
  1057                           	global	___ftdiv
  1058                           	global	??___ftdiv
  1059                           	global	?___ftdiv
  1060                           	file	"C:\Program Files (x86)\HI-TECH Software\P
                                 ICC-18\PRO\9.63\sources\ftdiv.c"
  1061                           	line	19
  1062  000000                     	__size_of___ftdiv	equ	__end_of___ftdiv-___ftdiv
  1063                           	
  1064  001A7E                     ___ftdiv:		; BSR set to: ?
  1065                           
  1066                           	opt stack 30
  1067                           	line	23
  1068  001A7E  0E00               	movlw	low(0)
  1069  001A80  0100               	movlb	0	; () banked
  1070  001A82  0100               	movlb	0	; () banked
  1071  001A84  6FE9               	movwf	((___ftdiv@f3))&0ffh
  1072  001A86  0E00               	movlw	high(0)
  1073  001A88  0100               	movlb	0	; () banked
  1074  001A8A  0100               	movlb	0	; () banked
  1075  001A8C  6FEA               	movwf	((___ftdiv@f3+1))&0ffh
  1076  001A8E  0E00               	movlw	low highword(0)
  1077  001A90  0100               	movlb	0	; () banked
  1078  001A92  0100               	movlb	0	; () banked
  1079  001A94  6FEB               	movwf	((___ftdiv@f3+2))&0ffh
  1080                           
  1081                           	line	24
  1082  001A96  0100               	movlb	0	; () banked
  1083  001A98  0EE7               	movlw	low(___ftdiv@exp1)
  1084  001A9A  0100               	movlb	0	; () banked
  1085  001A9C  0100               	movlb	0	; () banked
  1086  001A9E  6FEF               	movwf	(0+(?___ftunpack+02h))&0ffh
  1087  001AA0  0100               	movlb	0	; () banked
  1088  001AA2  0E00               	movlw	high(___ftdiv@exp1)
  1089  001AA4  0100               	movlb	0	; () banked
  1090  001AA6  6FF0               	movwf	(1+(?___ftunpack+02h))&0ffh
  1091  001AA8  0100               	movlb	0	; () banked
  1092  001AAA  0EDF               	movlw	low(___ftdiv@f1)
  1093  001AAC  0100               	movlb	0	; () banked
  1094  001AAE  0100               	movlb	0	; () banked
  1095  001AB0  6FED               	movwf	((?___ftunpack))&0ffh
  1096  001AB2  0100               	movlb	0	; () banked
  1097  001AB4  0E00               	movlw	high(___ftdiv@f1)
  1098  001AB6  0100               	movlb	0	; () banked
  1099  001AB8  6FEE               	movwf	((?___ftunpack+1))&0ffh
  1100  001ABA  ECCF  F010         	call	___ftunpack	;wreg free
  1101  001ABE  0100               	movlb	0	; () banked
  1102  001AC0  0100               	movlb	0	; () banked
  1103  001AC2  6FE6               	movwf	((___ftdiv@sign1))&0ffh
  1104                           	line	25
  1105  001AC4  0100               	movlb	0	; () banked
  1106  001AC6  0100               	movlb	0	; () banked
  1107  001AC8  67E7               	tstfsz	((___ftdiv@exp1))&0ffh
  1108  001ACA  D001               	goto	u1681
  1109  001ACC  D001               	goto	u1680
  1110  001ACE                     u1681:
  1111  001ACE  D007               	goto	l414
  1112  001AD0                     u1680:
  1113                           	line	26
  1114  001AD0  C0E9  F0DF         	movff	(___ftdiv@f3),(?___ftdiv)
  1115  001AD4  C0EA  F0E0         	movff	(___ftdiv@f3+1),(?___ftdiv+1)
  1116  001AD8  C0EB  F0E1         	movff	(___ftdiv@f3+2),(?___ftdiv+2)
  1117  001ADC  D096               	goto	l413
  1118                           	
  1119  001ADE                     l414:		; BSR set to: ?
  1120                           
  1121                           	line	27
  1122  001ADE  0100               	movlb	0	; () banked
  1123  001AE0  0EE5               	movlw	low(___ftdiv@exp2)
  1124  001AE2  0100               	movlb	0	; () banked
  1125  001AE4  0100               	movlb	0	; () banked
  1126  001AE6  6FEF               	movwf	(0+(?___ftunpack+02h))&0ffh
  1127  001AE8  0100               	movlb	0	; () banked
  1128  001AEA  0E00               	movlw	high(___ftdiv@exp2)
  1129  001AEC  0100               	movlb	0	; () banked
  1130  001AEE  6FF0               	movwf	(1+(?___ftunpack+02h))&0ffh
  1131  001AF0  0100               	movlb	0	; () banked
  1132  001AF2  0EE2               	movlw	low(___ftdiv@f2)
  1133  001AF4  0100               	movlb	0	; () banked
  1134  001AF6  0100               	movlb	0	; () banked
  1135  001AF8  6FED               	movwf	((?___ftunpack))&0ffh
  1136  001AFA  0100               	movlb	0	; () banked
  1137  001AFC  0E00               	movlw	high(___ftdiv@f2)
  1138  001AFE  0100               	movlb	0	; () banked
  1139  001B00  6FEE               	movwf	((?___ftunpack+1))&0ffh
  1140  001B02  ECCF  F010         	call	___ftunpack	;wreg free
  1141  001B06  0100               	movlb	0	; () banked
  1142  001B08  0100               	movlb	0	; () banked
  1143  001B0A  6FE8               	movwf	((___ftdiv@sign2))&0ffh
  1144                           	line	28
  1145  001B0C  0100               	movlb	0	; () banked
  1146  001B0E  0100               	movlb	0	; () banked
  1147  001B10  67E5               	tstfsz	((___ftdiv@exp2))&0ffh
  1148  001B12  D001               	goto	u1691
  1149  001B14  D001               	goto	u1690
  1150  001B16                     u1691:
  1151  001B16  D007               	goto	l415
  1152  001B18                     u1690:
  1153                           	line	29
  1154  001B18  C0E9  F0DF         	movff	(___ftdiv@f3),(?___ftdiv)
  1155  001B1C  C0EA  F0E0         	movff	(___ftdiv@f3+1),(?___ftdiv+1)
  1156  001B20  C0EB  F0E1         	movff	(___ftdiv@f3+2),(?___ftdiv+2)
  1157  001B24  D072               	goto	l413
  1158                           	
  1159  001B26                     l415:		; BSR set to: ?
  1160                           
  1161                           	line	30
  1162  001B26  0100               	movlb	0	; () banked
  1163  001B28  0100               	movlb	0	; () banked
  1164  001B2A  51E5               	movf	((___ftdiv@exp2))&0ffh,w
  1165  001B2C  0F89               	addlw	low(089h)
  1166  001B2E  0100               	movlb	0	; () banked
  1167  001B30  0100               	movlb	0	; () banked
  1168  001B32  5FE7               	subwf	((___ftdiv@exp1))&0ffh
  1169                           	line	31
  1170  001B34  0100               	movlb	0	; () banked
  1171  001B36  0100               	movlb	0	; () banked
  1172  001B38  51E8               	movf	((___ftdiv@sign2))&0ffh,w
  1173  001B3A  0100               	movlb	0	; () banked
  1174  001B3C  0100               	movlb	0	; () banked
  1175  001B3E  1BE6               	xorwf	((___ftdiv@sign1))&0ffh
  1176                           	line	32
  1177  001B40  0100               	movlb	0	; () banked
  1178  001B42  6FEC               	movwf	(??___ftdiv+7+0)&0ffh
  1179  001B44  0E18               	movlw	low(018h)
  1180  001B46  0100               	movlb	0	; () banked
  1181  001B48  0100               	movlb	0	; () banked
  1182  001B4A  6FE8               	movwf	((___ftdiv@sign2))&0ffh
  1183  001B4C  0100               	movlb	0	; () banked
  1184  001B4E  51EC               	movf	(??___ftdiv+7+0)&0ffh,w
  1185                           	line	33
  1186                           	
  1187  001B50                     l418:		; BSR set to: ?
  1188                           
  1189                           	line	34
  1190  001B50  0100               	movlb	0	; () banked
  1191  001B52  90D8               	bcf	status,0
  1192  001B54  0100               	movlb	0	; () banked
  1193  001B56  37E9               	rlcf	((___ftdiv@f3))&0ffh
  1194  001B58  0100               	movlb	0	; () banked
  1195  001B5A  37EA               	rlcf	((___ftdiv@f3+1))&0ffh
  1196  001B5C  0100               	movlb	0	; () banked
  1197  001B5E  37EB               	rlcf	((___ftdiv@f3+2))&0ffh
  1198                           	line	35
  1199  001B60  0100               	movlb	0	; () banked
  1200  001B62  0100               	movlb	0	; () banked
  1201  001B64  51E2               	movf	((___ftdiv@f2))&0ffh,w
  1202  001B66  0100               	movlb	0	; () banked
  1203  001B68  0100               	movlb	0	; () banked
  1204  001B6A  5DDF               	subwf	((___ftdiv@f1))&0ffh,w
  1205  001B6C  0100               	movlb	0	; () banked
  1206  001B6E  0100               	movlb	0	; () banked
  1207  001B70  51E3               	movf	((___ftdiv@f2+1))&0ffh,w
  1208  001B72  0100               	movlb	0	; () banked
  1209  001B74  0100               	movlb	0	; () banked
  1210  001B76  59E0               	subwfb	((___ftdiv@f1+1))&0ffh,w
  1211  001B78  0100               	movlb	0	; () banked
  1212  001B7A  0100               	movlb	0	; () banked
  1213  001B7C  51E4               	movf	((___ftdiv@f2+2))&0ffh,w
  1214  001B7E  0100               	movlb	0	; () banked
  1215  001B80  0100               	movlb	0	; () banked
  1216  001B82  59E1               	subwfb	((___ftdiv@f1+2))&0ffh,w
  1217  001B84  A0D8               	btfss	status,0
  1218  001B86  D001               	goto	u1701
  1219  001B88  D001               	goto	u1700
  1220  001B8A                     u1701:
  1221  001B8A  D015               	goto	l419
  1222  001B8C                     u1700:
  1223                           	line	36
  1224  001B8C  0100               	movlb	0	; () banked
  1225  001B8E  0100               	movlb	0	; () banked
  1226  001B90  51E2               	movf	((___ftdiv@f2))&0ffh,w
  1227  001B92  0100               	movlb	0	; () banked
  1228  001B94  0100               	movlb	0	; () banked
  1229  001B96  5FDF               	subwf	((___ftdiv@f1))&0ffh
  1230  001B98  0100               	movlb	0	; () banked
  1231  001B9A  0100               	movlb	0	; () banked
  1232  001B9C  51E3               	movf	((___ftdiv@f2+1))&0ffh,w
  1233  001B9E  0100               	movlb	0	; () banked
  1234  001BA0  0100               	movlb	0	; () banked
  1235  001BA2  5BE0               	subwfb	((___ftdiv@f1+1))&0ffh
  1236  001BA4  0100               	movlb	0	; () banked
  1237  001BA6  0100               	movlb	0	; () banked
  1238  001BA8  51E4               	movf	((___ftdiv@f2+2))&0ffh,w
  1239  001BAA  0100               	movlb	0	; () banked
  1240  001BAC  0100               	movlb	0	; () banked
  1241  001BAE  5BE1               	subwfb	((___ftdiv@f1+2))&0ffh
  1242                           
  1243                           	line	37
  1244  001BB0  0100               	movlb	0	; () banked
  1245  001BB2  0100               	movlb	0	; () banked
  1246  001BB4  81E9               	bsf	(0+(0/8)+(___ftdiv@f3))&0ffh,(0)&7
  1247                           	line	38
  1248                           	
  1249  001BB6                     l419:		; BSR set to: ?
  1250                           
  1251                           	line	39
  1252  001BB6  0100               	movlb	0	; () banked
  1253  001BB8  90D8               	bcf	status,0
  1254  001BBA  0100               	movlb	0	; () banked
  1255  001BBC  37DF               	rlcf	((___ftdiv@f1))&0ffh
  1256  001BBE  0100               	movlb	0	; () banked
  1257  001BC0  37E0               	rlcf	((___ftdiv@f1+1))&0ffh
  1258  001BC2  0100               	movlb	0	; () banked
  1259  001BC4  37E1               	rlcf	((___ftdiv@f1+2))&0ffh
  1260                           	line	40
  1261  001BC6  0100               	movlb	0	; () banked
  1262  001BC8  0100               	movlb	0	; () banked
  1263  001BCA  2FE8               	decfsz	((___ftdiv@sign2))&0ffh
  1264                           	
  1265  001BCC  D7C1               	goto	l418
  1266                           	
  1267  001BCE                     l417:		; BSR set to: ?
  1268                           
  1269                           	line	41
  1270  001BCE  C0E7  F0EF         	movff	(___ftdiv@exp1),0+(?___ftpack+02h)
  1271  001BD2  0100               	movlb	0	; () banked
  1272  001BD4  0EE9               	movlw	low(___ftdiv@f3)
  1273  001BD6  0100               	movlb	0	; () banked
  1274  001BD8  0100               	movlb	0	; () banked
  1275  001BDA  6FED               	movwf	((?___ftpack))&0ffh
  1276  001BDC  0100               	movlb	0	; () banked
  1277  001BDE  0E00               	movlw	high(___ftdiv@f3)
  1278  001BE0  0100               	movlb	0	; () banked
  1279  001BE2  6FEE               	movwf	((?___ftpack+1))&0ffh
  1280  001BE4  EC30  F010         	call	___ftpack	;wreg free
  1281                           	line	42
  1282  001BE8  0100               	movlb	0	; () banked
  1283  001BEA  0100               	movlb	0	; () banked
  1284  001BEC  51E6               	movf	((___ftdiv@sign1))&0ffh,w
  1285  001BEE  B4D8               	btfsc	status,2
  1286  001BF0  D001               	goto	u1711
  1287  001BF2  D001               	goto	u1710
  1288  001BF4                     u1711:
  1289  001BF4  D003               	goto	l420
  1290  001BF6                     u1710:
  1291                           	line	43
  1292  001BF6  0100               	movlb	0	; () banked
  1293  001BF8  0100               	movlb	0	; () banked
  1294  001BFA  8FEB               	bsf	(0+(23/8)+(___ftdiv@f3))&0ffh,(23)&7
  1295                           	
  1296  001BFC                     l420:		; BSR set to: ?
  1297                           
  1298                           	line	44
  1299  001BFC  C0E9  F0DF         	movff	(___ftdiv@f3),(?___ftdiv)
  1300  001C00  C0EA  F0E0         	movff	(___ftdiv@f3+1),(?___ftdiv+1)
  1301  001C04  C0EB  F0E1         	movff	(___ftdiv@f3+2),(?___ftdiv+2)
  1302  001C08  D000               	goto	l413
  1303                           	line	45
  1304  001C0A                     l413:
  1305                           			; BSR set to: ?
  1306                           
  1307  001C0A  0012               	return
  1308                           	opt stack 0
  1309                           GLOBAL __end_of___ftdiv
  1310  001C0C                     	__end_of___ftdiv:
  1311                           	FNSIZE	___ftdiv,8,6
  1312                           ; =============== function ___ftdiv ends =======
                                 =====
  1313                           
  1314                           	signat	___ftdiv,8315
  1315                           	global	___lwtoft
  1316                           	global	??___lwtoft
  1317                           	global	?___lwtoft
  1318                                   psect   text2,class=CODE,space=0,reloc=2
  1319                           
  1320                           	opt lm
  1321                           	file	"C:\Program Files (x86)\HI-TECH Software\P
                                 ICC-18\PRO\9.63\sources\lwtoft.c"
  1322                           	line	16
  1323  000000                     	__size_of___lwtoft	equ	__end_of___lwtoft-___lwt
                                 oft
  1324                           	
  1325  0023DC                     ___lwtoft:		; BSR set to: ?
  1326                           
  1327                           	opt stack 30
  1328                           	line	19
  1329  0023DC  0100               	movlb	0	; () banked
  1330  0023DE  0100               	movlb	0	; () banked
  1331  0023E0  51E0               	movf	((___lwtoft@c+1))&0ffh,w
  1332  0023E2  11DF               	iorwf ((___lwtoft@c))&0ffh,w
  1333                           
  1334  0023E4  A4D8               	btfss	status,2
  1335  0023E6  D001               	goto	u1841
  1336  0023E8  D001               	goto	u1840
  1337  0023EA                     u1841:
  1338  0023EA  D00D               	goto	l521
  1339  0023EC                     u1840:
  1340                           	line	20
  1341  0023EC  0E00               	movlw	low(float24(0.00000000000000000))
  1342  0023EE  0100               	movlb	0	; () banked
  1343  0023F0  0100               	movlb	0	; () banked
  1344  0023F2  6FDF               	movwf	((?___lwtoft))&0ffh
  1345  0023F4  0E00               	movlw	high(float24(0.00000000000000000))
  1346  0023F6  0100               	movlb	0	; () banked
  1347  0023F8  0100               	movlb	0	; () banked
  1348  0023FA  6FE0               	movwf	((?___lwtoft+1))&0ffh
  1349  0023FC  0E00               	movlw	low highword(float24(0.00000000000000000)
                                 )
  1350  0023FE  0100               	movlb	0	; () banked
  1351  002400  0100               	movlb	0	; () banked
  1352  002402  6FE1               	movwf	((?___lwtoft+2))&0ffh
  1353                           
  1354  002404  D025               	goto	l520
  1355                           	
  1356  002406                     l521:		; BSR set to: ?
  1357                           
  1358                           	line	21
  1359  002406  0100               	movlb	0	; () banked
  1360  002408  0100               	movlb	0	; () banked
  1361  00240A  C0DF  F0E2         	movff	(___lwtoft@c),(___lwtoft@f1)
  1362  00240E  0100               	movlb	0	; () banked
  1363  002410  0100               	movlb	0	; () banked
  1364  002412  C0E0  F0E3         	movff	(___lwtoft@c+1),(___lwtoft@f1+1)
  1365  002416  0100               	movlb	0	; () banked
  1366  002418  0100               	movlb	0	; () banked
  1367  00241A  6BE4               	clrf	((___lwtoft@f1+2))&0ffh
  1368                           	line	22
  1369  00241C  0100               	movlb	0	; () banked
  1370  00241E  6FE5               	movwf	(??___lwtoft+3+0)&0ffh
  1371  002420  0E8E               	movlw	low(08Eh)
  1372  002422  0100               	movlb	0	; () banked
  1373  002424  0100               	movlb	0	; () banked
  1374  002426  6FEF               	movwf	(0+(?___ftpack+02h))&0ffh
  1375  002428  0100               	movlb	0	; () banked
  1376  00242A  51E5               	movf	(??___lwtoft+3+0)&0ffh,w
  1377  00242C  0100               	movlb	0	; () banked
  1378  00242E  0EE2               	movlw	low(___lwtoft@f1)
  1379  002430  0100               	movlb	0	; () banked
  1380  002432  0100               	movlb	0	; () banked
  1381  002434  6FED               	movwf	((?___ftpack))&0ffh
  1382  002436  0100               	movlb	0	; () banked
  1383  002438  0E00               	movlw	high(___lwtoft@f1)
  1384  00243A  0100               	movlb	0	; () banked
  1385  00243C  6FEE               	movwf	((?___ftpack+1))&0ffh
  1386  00243E  EC30  F010         	call	___ftpack	;wreg free
  1387                           	line	23
  1388  002442  C0E2  F0DF         	movff	(___lwtoft@f1),(?___lwtoft)
  1389  002446  C0E3  F0E0         	movff	(___lwtoft@f1+1),(?___lwtoft+1)
  1390  00244A  C0E4  F0E1         	movff	(___lwtoft@f1+2),(?___lwtoft+2)
  1391  00244E  D000               	goto	l520
  1392                           	line	24
  1393  002450                     l520:
  1394                           			; BSR set to: ?
  1395                           
  1396  002450  0012               	return
  1397                           	opt stack 0
  1398                           GLOBAL __end_of___lwtoft
  1399  002452                     	__end_of___lwtoft:
  1400                           	FNSIZE	___lwtoft,4,3
  1401                           ; =============== function ___lwtoft ends ======
                                 ======
  1402                           
  1403                           	signat	___lwtoft,4219
  1404                           	global	_A2D_Read
  1405                           	global	??_A2D_Read
  1406                           	global	?_A2D_Read
  1407                                   psect   text3,class=CODE,space=0,reloc=2
  1408                           
  1409                           	opt lm
  1410                           	file	"A:\OneDrive\School\College\Junior\Fa23\Em
                                 b Sys\c\hw5\stepper\stepepr.c"
  1411                           	line	9
  1412  000000                     	__size_of_A2D_Read	equ	__end_of_A2D_Read-_A2D_R
                                 ead
  1413                           ;stepepr.c: 8: unsigned int A2D_Read(unsigned ch
                                 ar c)
  1414                           ;stepepr.c: 9: {
  1415                           	
  1416  002452                     _A2D_Read:		; BSR set to: ?
  1417                           
  1418                           	opt stack 30
  1419                           	line	12
  1420  002452  0100               	movlb	0	; () banked
  1421  002454  0100               	movlb	0	; () banked
  1422  002456  51DF               	movf	((A2D_Read@c))&0ffh,w
  1423  002458  0B0F               	andlw	low(0Fh)
  1424  00245A  0100               	movlb	0	; () banked
  1425  00245C  0100               	movlb	0	; () banked
  1426  00245E  6FDF               	movwf	((A2D_Read@c))&0ffh
  1427                           	line	13
  1428                           ;stepepr.c: 13: ADCON0 = (c << 2) + 0x01;
  1429  002460  C0DF  F0E2         	movff	(A2D_Read@c),??_A2D_Read+1+0
  1430  002464  90D8               	bcf	status,0
  1431  002466  0100               	movlb	0	; () banked
  1432  002468  37E2               	rlcf	(??_A2D_Read+1+0)&0ffh
  1433  00246A  90D8               	bcf	status,0
  1434  00246C  0100               	movlb	0	; () banked
  1435  00246E  37E2               	rlcf	(??_A2D_Read+1+0)&0ffh
  1436                           
  1437  002470  0100               	movlb	0	; () banked
  1438  002472  29E2               	incf	(??_A2D_Read+1+0)&0ffh,w
  1439  002474  6EC2               	movwf	((c:4034)),c	;volatile
  1440                           	line	14
  1441                           ;stepepr.c: 14: for (i=0; i<20; i++);
  1442  002476  0100               	movlb	0	; () banked
  1443  002478  6FE2               	movwf	(??_A2D_Read+1+0)&0ffh
  1444  00247A  0E00               	movlw	low(0)
  1445  00247C  0100               	movlb	0	; () banked
  1446  00247E  0100               	movlb	0	; () banked
  1447  002480  6FE1               	movwf	((A2D_Read@i))&0ffh
  1448  002482  0100               	movlb	0	; () banked
  1449  002484  51E2               	movf	(??_A2D_Read+1+0)&0ffh,w
  1450  002486  0E13               	movlw	(014h-1)
  1451  002488  0100               	movlb	0	; () banked
  1452  00248A  0100               	movlb	0	; () banked
  1453  00248C  65E1               	cpfsgt	((A2D_Read@i))&0ffh
  1454  00248E  D001               	goto	u901
  1455  002490  D001               	goto	u900
  1456  002492                     u901:
  1457  002492  D001               	goto	l167
  1458  002494                     u900:
  1459  002494  D00A               	goto	l168
  1460                           	
  1461  002496                     l167:		; BSR set to: ?
  1462                           
  1463  002496  0100               	movlb	0	; () banked
  1464  002498  0100               	movlb	0	; () banked
  1465  00249A  2BE1               	incf	((A2D_Read@i))&0ffh
  1466  00249C  0E13               	movlw	(014h-1)
  1467  00249E  0100               	movlb	0	; () banked
  1468  0024A0  0100               	movlb	0	; () banked
  1469  0024A2  65E1               	cpfsgt	((A2D_Read@i))&0ffh
  1470  0024A4  D001               	goto	u911
  1471  0024A6  D001               	goto	u910
  1472  0024A8                     u911:
  1473  0024A8  D7F6               	goto	l167
  1474  0024AA                     u910:
  1475                           	
  1476  0024AA                     l168:		; BSR set to: ?
  1477                           
  1478                           	line	15
  1479                           ;stepepr.c: 15: GODONE = 1;
  1480  0024AA  82C2               	bsf	c:(32273/8),(32273)&7	;volatile
  1481                           	line	16
  1482                           ;stepepr.c: 16: while(GODONE);
  1483  0024AC  D000               	goto	l170
  1484                           	
  1485  0024AE                     l170:		; BSR set to: ?
  1486                           
  1487  0024AE  B2C2               	btfsc	c:(32273/8),(32273)&7	;volatile
  1488  0024B0  D001               	goto	u921
  1489  0024B2  D001               	goto	u920
  1490  0024B4                     u921:
  1491  0024B4  D7FC               	goto	l170
  1492  0024B6                     u920:
  1493                           	
  1494  0024B6                     l172:		; BSR set to: ?
  1495                           
  1496                           	line	17
  1497  0024B6  CFC3 F0DF          	movff	(c:4035),(?_A2D_Read)	;volatile
  1498  0024BA  CFC4 F0E0          	movff	(c:4035+1),(?_A2D_Read+1)	;volatile
  1499  0024BE  D000               	goto	l166
  1500                           	line	18
  1501                           ;stepepr.c: 18: }
  1502  0024C0                     l166:
  1503                           			; BSR set to: ?
  1504                           
  1505  0024C0  0012               	return
  1506                           	opt stack 0
  1507                           GLOBAL __end_of_A2D_Read
  1508  0024C2                     	__end_of_A2D_Read:
  1509                           	FNSIZE	_A2D_Read,2,2
  1510                           ; =============== function _A2D_Read ends ======
                                 ======
  1511                           
  1512                           	signat	_A2D_Read,4218
  1513                           	global	___ftadd
  1514                           	global	??___ftadd
  1515                           	global	?___ftadd
  1516                                   psect   text4,class=CODE,space=0,reloc=2
  1517                           
  1518                           	opt lm
  1519                           	file	"C:\Program Files (x86)\HI-TECH Software\P
                                 ICC-18\PRO\9.63\sources\ftadd.c"
  1520                           	line	17
  1521  000000                     	__size_of___ftadd	equ	__end_of___ftadd-___ftadd
  1522                           	
  1523  001580                     ___ftadd:		; BSR set to: ?
  1524                           
  1525                           	opt stack 30
  1526                           	line	20
  1527  001580  D000               	goto	l386
  1528                           	line	21
  1529                           	
  1530  001582                     l386:		; BSR set to: ?
  1531                           
  1532                           	line	22
  1533  001582  0100               	movlb	0	; () banked
  1534  001584  0EE9               	movlw	low(___ftadd@exp1)
  1535  001586  0100               	movlb	0	; () banked
  1536  001588  0100               	movlb	0	; () banked
  1537  00158A  6FEF               	movwf	(0+(?___ftunpack+02h))&0ffh
  1538  00158C  0100               	movlb	0	; () banked
  1539  00158E  0E00               	movlw	high(___ftadd@exp1)
  1540  001590  0100               	movlb	0	; () banked
  1541  001592  6FF0               	movwf	(1+(?___ftunpack+02h))&0ffh
  1542  001594  0100               	movlb	0	; () banked
  1543  001596  0EDF               	movlw	low(___ftadd@f1)
  1544  001598  0100               	movlb	0	; () banked
  1545  00159A  0100               	movlb	0	; () banked
  1546  00159C  6FED               	movwf	((?___ftunpack))&0ffh
  1547  00159E  0100               	movlb	0	; () banked
  1548  0015A0  0E00               	movlw	high(___ftadd@f1)
  1549  0015A2  0100               	movlb	0	; () banked
  1550  0015A4  6FEE               	movwf	((?___ftunpack+1))&0ffh
  1551  0015A6  ECCF  F010         	call	___ftunpack	;wreg free
  1552  0015AA  0100               	movlb	0	; () banked
  1553  0015AC  0100               	movlb	0	; () banked
  1554  0015AE  6FE7               	movwf	((___ftadd@sign1))&0ffh
  1555                           	line	23
  1556  0015B0  0100               	movlb	0	; () banked
  1557  0015B2  0100               	movlb	0	; () banked
  1558  0015B4  67E9               	tstfsz	((___ftadd@exp1))&0ffh
  1559  0015B6  D001               	goto	u1541
  1560  0015B8  D001               	goto	u1540
  1561  0015BA                     u1541:
  1562  0015BA  D007               	goto	l387
  1563  0015BC                     u1540:
  1564                           	line	24
  1565  0015BC  C0E2  F0DF         	movff	(___ftadd@f2),(?___ftadd)
  1566  0015C0  C0E3  F0E0         	movff	(___ftadd@f2+1),(?___ftadd+1)
  1567  0015C4  C0E4  F0E1         	movff	(___ftadd@f2+2),(?___ftadd+2)
  1568  0015C8  D177               	goto	l385
  1569                           	
  1570  0015CA                     l387:		; BSR set to: ?
  1571                           
  1572                           	line	25
  1573  0015CA  0100               	movlb	0	; () banked
  1574  0015CC  0EE8               	movlw	low(___ftadd@exp2)
  1575  0015CE  0100               	movlb	0	; () banked
  1576  0015D0  0100               	movlb	0	; () banked
  1577  0015D2  6FEF               	movwf	(0+(?___ftunpack+02h))&0ffh
  1578  0015D4  0100               	movlb	0	; () banked
  1579  0015D6  0E00               	movlw	high(___ftadd@exp2)
  1580  0015D8  0100               	movlb	0	; () banked
  1581  0015DA  6FF0               	movwf	(1+(?___ftunpack+02h))&0ffh
  1582  0015DC  0100               	movlb	0	; () banked
  1583  0015DE  0EE2               	movlw	low(___ftadd@f2)
  1584  0015E0  0100               	movlb	0	; () banked
  1585  0015E2  0100               	movlb	0	; () banked
  1586  0015E4  6FED               	movwf	((?___ftunpack))&0ffh
  1587  0015E6  0100               	movlb	0	; () banked
  1588  0015E8  0E00               	movlw	high(___ftadd@f2)
  1589  0015EA  0100               	movlb	0	; () banked
  1590  0015EC  6FEE               	movwf	((?___ftunpack+1))&0ffh
  1591  0015EE  ECCF  F010         	call	___ftunpack	;wreg free
  1592  0015F2  0100               	movlb	0	; () banked
  1593  0015F4  0100               	movlb	0	; () banked
  1594  0015F6  6FE5               	movwf	((___ftadd@sign2))&0ffh
  1595                           	line	26
  1596  0015F8  0100               	movlb	0	; () banked
  1597  0015FA  0100               	movlb	0	; () banked
  1598  0015FC  51E8               	movf	((___ftadd@exp2))&0ffh,w
  1599  0015FE  B4D8               	btfsc	status,2
  1600  001600  D001               	goto	u1551
  1601  001602  D001               	goto	u1550
  1602  001604                     u1551:
  1603  001604  D132               	goto	l388
  1604  001606                     u1550:
  1605                           	line	27
  1606  001606  0100               	movlb	0	; () banked
  1607  001608  6FEA               	movwf	(??___ftadd+5+0)&0ffh
  1608  00160A  0E06               	movlw	low(06h)
  1609  00160C  0100               	movlb	0	; () banked
  1610  00160E  0100               	movlb	0	; () banked
  1611  001610  6FE6               	movwf	((___ftadd@cntr))&0ffh
  1612  001612  0100               	movlb	0	; () banked
  1613  001614  51EA               	movf	(??___ftadd+5+0)&0ffh,w
  1614                           	line	29
  1615  001616  0100               	movlb	0	; () banked
  1616  001618  0100               	movlb	0	; () banked
  1617  00161A  51E8               	movf	((___ftadd@exp2))&0ffh,w
  1618  00161C  0100               	movlb	0	; () banked
  1619  00161E  0100               	movlb	0	; () banked
  1620  001620  61E9               	cpfslt	((___ftadd@exp1))&0ffh
  1621  001622  D001               	goto	u1561
  1622  001624  D001               	goto	u1560
  1623  001626                     u1561:
  1624  001626  D04F               	goto	l389
  1625  001628                     u1560:
  1626                           	line	30
  1627  001628  0100               	movlb	0	; () banked
  1628  00162A  0100               	movlb	0	; () banked
  1629  00162C  51E9               	movf	((___ftadd@exp1))&0ffh,w
  1630  00162E  0100               	movlb	0	; () banked
  1631  001630  0100               	movlb	0	; () banked
  1632  001632  5DE8               	subwf	((___ftadd@exp2))&0ffh,w
  1633  001634  0100               	movlb	0	; () banked
  1634  001636  6FEA               	movwf	(??___ftadd+5+0)&0ffh
  1635  001638  0E19               	movlw	(019h)&0ffh
  1636  00163A  0100               	movlb	0	; () banked
  1637  00163C  5DEA               	subwf	((??___ftadd+5+0))&0ffh,w
  1638  00163E  A0D8               	btfss	status,0
  1639  001640  D001               	goto	u1571
  1640  001642  D001               	goto	u1570
  1641  001644                     u1571:
  1642  001644  D011               	goto	l394
  1643  001646                     u1570:
  1644                           	line	32
  1645  001646  0E00               	movlw	low(0)
  1646  001648  0100               	movlb	0	; () banked
  1647  00164A  0100               	movlb	0	; () banked
  1648  00164C  6FDF               	movwf	((___ftadd@f1))&0ffh
  1649  00164E  0E00               	movlw	high(0)
  1650  001650  0100               	movlb	0	; () banked
  1651  001652  0100               	movlb	0	; () banked
  1652  001654  6FE0               	movwf	((___ftadd@f1+1))&0ffh
  1653  001656  0E00               	movlw	low highword(0)
  1654  001658  0100               	movlb	0	; () banked
  1655  00165A  0100               	movlb	0	; () banked
  1656  00165C  6FE1               	movwf	((___ftadd@f1+2))&0ffh
  1657                           
  1658                           	line	33
  1659  00165E  C0E8  F0E9         	movff	(___ftadd@exp2),(___ftadd@exp1)
  1660                           	line	34
  1661  001662  C0E5  F0E7         	movff	(___ftadd@sign2),(___ftadd@sign1)
  1662                           	line	35
  1663  001666  D02E               	goto	l391
  1664                           	line	38
  1665                           	
  1666  001668                     l394:		; BSR set to: ?
  1667                           
  1668                           	line	39
  1669  001668  0100               	movlb	0	; () banked
  1670  00166A  90D8               	bcf	status,0
  1671  00166C  0100               	movlb	0	; () banked
  1672  00166E  37E2               	rlcf	((___ftadd@f2))&0ffh
  1673  001670  0100               	movlb	0	; () banked
  1674  001672  37E3               	rlcf	((___ftadd@f2+1))&0ffh
  1675  001674  0100               	movlb	0	; () banked
  1676  001676  37E4               	rlcf	((___ftadd@f2+2))&0ffh
  1677                           	line	40
  1678  001678  0100               	movlb	0	; () banked
  1679  00167A  0100               	movlb	0	; () banked
  1680  00167C  07E8               	decf	((___ftadd@exp2))&0ffh
  1681                           	line	41
  1682  00167E  0100               	movlb	0	; () banked
  1683  001680  0100               	movlb	0	; () banked
  1684  001682  51E8               	movf	((___ftadd@exp2))&0ffh,w
  1685  001684  0100               	movlb	0	; () banked
  1686  001686  0100               	movlb	0	; () banked
  1687  001688  19E9               	xorwf	((___ftadd@exp1))&0ffh,w
  1688  00168A  B4D8               	btfsc	status,2
  1689  00168C  D001               	goto	u1581
  1690  00168E  D001               	goto	u1580
  1691  001690                     u1581:
  1692  001690  D004               	goto	l393
  1693  001692                     u1580:
  1694  001692  0100               	movlb	0	; () banked
  1695  001694  0100               	movlb	0	; () banked
  1696  001696  2FE6               	decfsz	((___ftadd@cntr))&0ffh
  1697                           	
  1698  001698  D7E7               	goto	l394
  1699                           	
  1700  00169A                     l600000205:		; BSR set to: ?
  1701                           
  1702                           	
  1703  00169A                     l393:		; BSR set to: ?
  1704                           
  1705                           	line	42
  1706  00169A  D00B               	goto	l395
  1707                           	
  1708  00169C                     l396:		; BSR set to: ?
  1709                           
  1710                           	line	43
  1711  00169C  0100               	movlb	0	; () banked
  1712  00169E  90D8               	bcf	status,0
  1713  0016A0  0100               	movlb	0	; () banked
  1714  0016A2  33E1               	rrcf	((___ftadd@f1+2))&0ffh
  1715  0016A4  0100               	movlb	0	; () banked
  1716  0016A6  33E0               	rrcf	((___ftadd@f1+1))&0ffh
  1717  0016A8  0100               	movlb	0	; () banked
  1718  0016AA  33DF               	rrcf	((___ftadd@f1))&0ffh
  1719                           	line	44
  1720  0016AC  0100               	movlb	0	; () banked
  1721  0016AE  0100               	movlb	0	; () banked
  1722  0016B0  2BE9               	incf	((___ftadd@exp1))&0ffh
  1723                           	line	45
  1724                           	
  1725  0016B2                     l395:		; BSR set to: ?
  1726                           
  1727                           	line	42
  1728  0016B2  0100               	movlb	0	; () banked
  1729  0016B4  0100               	movlb	0	; () banked
  1730  0016B6  51E8               	movf	((___ftadd@exp2))&0ffh,w
  1731  0016B8  0100               	movlb	0	; () banked
  1732  0016BA  0100               	movlb	0	; () banked
  1733  0016BC  63E9               	cpfseq	((___ftadd@exp1))&0ffh
  1734  0016BE  D001               	goto	u1591
  1735  0016C0  D001               	goto	u1590
  1736  0016C2                     u1591:
  1737  0016C2  D7EC               	goto	l396
  1738  0016C4                     u1590:
  1739                           	
  1740  0016C4                     l397:		; BSR set to: ?
  1741                           
  1742                           	line	46
  1743                           	
  1744  0016C4                     l391:		; BSR set to: ?
  1745                           
  1746                           	line	47
  1747  0016C4  D054               	goto	l398
  1748                           	
  1749  0016C6                     l389:		; BSR set to: ?
  1750                           
  1751  0016C6  0100               	movlb	0	; () banked
  1752  0016C8  0100               	movlb	0	; () banked
  1753  0016CA  51E9               	movf	((___ftadd@exp1))&0ffh,w
  1754  0016CC  0100               	movlb	0	; () banked
  1755  0016CE  0100               	movlb	0	; () banked
  1756  0016D0  19E8               	xorwf	((___ftadd@exp2))&0ffh,w
  1757  0016D2  B4D8               	btfsc	status,2
  1758  0016D4  D001               	goto	u1601
  1759  0016D6  D001               	goto	u1600
  1760  0016D8                     u1601:
  1761  0016D8  D04A               	goto	l398
  1762  0016DA                     u1600:
  1763                           	line	48
  1764  0016DA  0100               	movlb	0	; () banked
  1765  0016DC  0100               	movlb	0	; () banked
  1766  0016DE  51E8               	movf	((___ftadd@exp2))&0ffh,w
  1767  0016E0  0100               	movlb	0	; () banked
  1768  0016E2  0100               	movlb	0	; () banked
  1769  0016E4  5DE9               	subwf	((___ftadd@exp1))&0ffh,w
  1770  0016E6  0100               	movlb	0	; () banked
  1771  0016E8  6FEA               	movwf	(??___ftadd+5+0)&0ffh
  1772  0016EA  0E19               	movlw	(019h)&0ffh
  1773  0016EC  0100               	movlb	0	; () banked
  1774  0016EE  5DEA               	subwf	((??___ftadd+5+0))&0ffh,w
  1775  0016F0  A0D8               	btfss	status,0
  1776  0016F2  D001               	goto	u1611
  1777  0016F4  D001               	goto	u1610
  1778  0016F6                     u1611:
  1779  0016F6  D00D               	goto	l404
  1780  0016F8                     u1610:
  1781                           	line	49
  1782  0016F8  0E00               	movlw	low(0)
  1783  0016FA  0100               	movlb	0	; () banked
  1784  0016FC  0100               	movlb	0	; () banked
  1785  0016FE  6FE2               	movwf	((___ftadd@f2))&0ffh
  1786  001700  0E00               	movlw	high(0)
  1787  001702  0100               	movlb	0	; () banked
  1788  001704  0100               	movlb	0	; () banked
  1789  001706  6FE3               	movwf	((___ftadd@f2+1))&0ffh
  1790  001708  0E00               	movlw	low highword(0)
  1791  00170A  0100               	movlb	0	; () banked
  1792  00170C  0100               	movlb	0	; () banked
  1793  00170E  6FE4               	movwf	((___ftadd@f2+2))&0ffh
  1794                           
  1795  001710  D02E               	goto	l398
  1796                           	line	53
  1797                           	
  1798  001712                     l404:		; BSR set to: ?
  1799                           
  1800                           	line	54
  1801  001712  0100               	movlb	0	; () banked
  1802  001714  90D8               	bcf	status,0
  1803  001716  0100               	movlb	0	; () banked
  1804  001718  37DF               	rlcf	((___ftadd@f1))&0ffh
  1805  00171A  0100               	movlb	0	; () banked
  1806  00171C  37E0               	rlcf	((___ftadd@f1+1))&0ffh
  1807  00171E  0100               	movlb	0	; () banked
  1808  001720  37E1               	rlcf	((___ftadd@f1+2))&0ffh
  1809                           	line	55
  1810  001722  0100               	movlb	0	; () banked
  1811  001724  0100               	movlb	0	; () banked
  1812  001726  07E9               	decf	((___ftadd@exp1))&0ffh
  1813                           	line	56
  1814  001728  0100               	movlb	0	; () banked
  1815  00172A  0100               	movlb	0	; () banked
  1816  00172C  51E8               	movf	((___ftadd@exp2))&0ffh,w
  1817  00172E  0100               	movlb	0	; () banked
  1818  001730  0100               	movlb	0	; () banked
  1819  001732  19E9               	xorwf	((___ftadd@exp1))&0ffh,w
  1820  001734  B4D8               	btfsc	status,2
  1821  001736  D001               	goto	u1621
  1822  001738  D001               	goto	u1620
  1823  00173A                     u1621:
  1824  00173A  D004               	goto	l403
  1825  00173C                     u1620:
  1826  00173C  0100               	movlb	0	; () banked
  1827  00173E  0100               	movlb	0	; () banked
  1828  001740  2FE6               	decfsz	((___ftadd@cntr))&0ffh
  1829                           	
  1830  001742  D7E7               	goto	l404
  1831                           	
  1832  001744                     l600000206:		; BSR set to: ?
  1833                           
  1834                           	
  1835  001744                     l403:		; BSR set to: ?
  1836                           
  1837                           	line	57
  1838  001744  D00B               	goto	l405
  1839                           	
  1840  001746                     l406:		; BSR set to: ?
  1841                           
  1842                           	line	58
  1843  001746  0100               	movlb	0	; () banked
  1844  001748  90D8               	bcf	status,0
  1845  00174A  0100               	movlb	0	; () banked
  1846  00174C  33E4               	rrcf	((___ftadd@f2+2))&0ffh
  1847  00174E  0100               	movlb	0	; () banked
  1848  001750  33E3               	rrcf	((___ftadd@f2+1))&0ffh
  1849  001752  0100               	movlb	0	; () banked
  1850  001754  33E2               	rrcf	((___ftadd@f2))&0ffh
  1851                           	line	59
  1852  001756  0100               	movlb	0	; () banked
  1853  001758  0100               	movlb	0	; () banked
  1854  00175A  2BE8               	incf	((___ftadd@exp2))&0ffh
  1855                           	line	60
  1856                           	
  1857  00175C                     l405:		; BSR set to: ?
  1858                           
  1859                           	line	57
  1860  00175C  0100               	movlb	0	; () banked
  1861  00175E  0100               	movlb	0	; () banked
  1862  001760  51E8               	movf	((___ftadd@exp2))&0ffh,w
  1863  001762  0100               	movlb	0	; () banked
  1864  001764  0100               	movlb	0	; () banked
  1865  001766  63E9               	cpfseq	((___ftadd@exp1))&0ffh
  1866  001768  D001               	goto	u1631
  1867  00176A  D001               	goto	u1630
  1868  00176C                     u1631:
  1869  00176C  D7EC               	goto	l406
  1870  00176E                     u1630:
  1871                           	
  1872  00176E                     l407:		; BSR set to: ?
  1873                           
  1874                           	line	61
  1875                           	
  1876  00176E                     l401:		; BSR set to: ?
  1877                           
  1878                           	line	62
  1879                           	
  1880  00176E                     l399:		; BSR set to: ?
  1881                           
  1882                           	line	63
  1883                           	
  1884  00176E                     l398:		; BSR set to: ?
  1885                           
  1886  00176E  0100               	movlb	0	; () banked
  1887  001770  0100               	movlb	0	; () banked
  1888  001772  51E7               	movf	((___ftadd@sign1))&0ffh,w
  1889  001774  B4D8               	btfsc	status,2
  1890  001776  D001               	goto	u1641
  1891  001778  D001               	goto	u1640
  1892  00177A                     u1641:
  1893  00177A  D018               	goto	l408
  1894  00177C                     u1640:
  1895                           	line	64
  1896  00177C  0EFF               	movlw	low(0FFFFFFh)
  1897  00177E  0100               	movlb	0	; () banked
  1898  001780  0100               	movlb	0	; () banked
  1899  001782  1BDF               	xorwf	((___ftadd@f1))&0ffh
  1900  001784  0EFF               	movlw	high(0FFFFFFh)
  1901  001786  0100               	movlb	0	; () banked
  1902  001788  0100               	movlb	0	; () banked
  1903  00178A  1BE0               	xorwf	((___ftadd@f1+1))&0ffh
  1904  00178C  0EFF               	movlw	low highword(0FFFFFFh)
  1905  00178E  0100               	movlb	0	; () banked
  1906  001790  0100               	movlb	0	; () banked
  1907  001792  1BE1               	xorwf	((___ftadd@f1+2))&0ffh
  1908                           
  1909                           	line	65
  1910  001794  0E01               	movlw	low(01h)
  1911  001796  0100               	movlb	0	; () banked
  1912  001798  0100               	movlb	0	; () banked
  1913  00179A  27DF               	addwf	((___ftadd@f1))&0ffh
  1914  00179C  0E00               	movlw	high(01h)
  1915  00179E  0100               	movlb	0	; () banked
  1916  0017A0  0100               	movlb	0	; () banked
  1917  0017A2  23E0               	addwfc	((___ftadd@f1+1))&0ffh
  1918  0017A4  0E00               	movlw	low highword(01h)
  1919  0017A6  0100               	movlb	0	; () banked
  1920  0017A8  0100               	movlb	0	; () banked
  1921  0017AA  23E1               	addwfc	((___ftadd@f1+2))&0ffh
  1922                           
  1923                           	line	66
  1924                           	
  1925  0017AC                     l408:		; BSR set to: ?
  1926                           
  1927                           	line	67
  1928  0017AC  0100               	movlb	0	; () banked
  1929  0017AE  0100               	movlb	0	; () banked
  1930  0017B0  51E5               	movf	((___ftadd@sign2))&0ffh,w
  1931  0017B2  B4D8               	btfsc	status,2
  1932  0017B4  D001               	goto	u1651
  1933  0017B6  D001               	goto	u1650
  1934  0017B8                     u1651:
  1935  0017B8  D018               	goto	l409
  1936  0017BA                     u1650:
  1937                           	line	68
  1938  0017BA  0EFF               	movlw	low(0FFFFFFh)
  1939  0017BC  0100               	movlb	0	; () banked
  1940  0017BE  0100               	movlb	0	; () banked
  1941  0017C0  1BE2               	xorwf	((___ftadd@f2))&0ffh
  1942  0017C2  0EFF               	movlw	high(0FFFFFFh)
  1943  0017C4  0100               	movlb	0	; () banked
  1944  0017C6  0100               	movlb	0	; () banked
  1945  0017C8  1BE3               	xorwf	((___ftadd@f2+1))&0ffh
  1946  0017CA  0EFF               	movlw	low highword(0FFFFFFh)
  1947  0017CC  0100               	movlb	0	; () banked
  1948  0017CE  0100               	movlb	0	; () banked
  1949  0017D0  1BE4               	xorwf	((___ftadd@f2+2))&0ffh
  1950                           
  1951                           	line	69
  1952  0017D2  0E01               	movlw	low(01h)
  1953  0017D4  0100               	movlb	0	; () banked
  1954  0017D6  0100               	movlb	0	; () banked
  1955  0017D8  27E2               	addwf	((___ftadd@f2))&0ffh
  1956  0017DA  0E00               	movlw	high(01h)
  1957  0017DC  0100               	movlb	0	; () banked
  1958  0017DE  0100               	movlb	0	; () banked
  1959  0017E0  23E3               	addwfc	((___ftadd@f2+1))&0ffh
  1960  0017E2  0E00               	movlw	low highword(01h)
  1961  0017E4  0100               	movlb	0	; () banked
  1962  0017E6  0100               	movlb	0	; () banked
  1963  0017E8  23E4               	addwfc	((___ftadd@f2+2))&0ffh
  1964                           
  1965                           	line	70
  1966                           	
  1967  0017EA                     l409:		; BSR set to: ?
  1968                           
  1969                           	line	71
  1970  0017EA  0100               	movlb	0	; () banked
  1971  0017EC  6FEA               	movwf	(??___ftadd+5+0)&0ffh
  1972  0017EE  0E00               	movlw	low(0)
  1973  0017F0  0100               	movlb	0	; () banked
  1974  0017F2  0100               	movlb	0	; () banked
  1975  0017F4  6FE7               	movwf	((___ftadd@sign1))&0ffh
  1976  0017F6  0100               	movlb	0	; () banked
  1977  0017F8  51EA               	movf	(??___ftadd+5+0)&0ffh,w
  1978                           	line	72
  1979  0017FA  0100               	movlb	0	; () banked
  1980  0017FC  0100               	movlb	0	; () banked
  1981  0017FE  51E2               	movf	((___ftadd@f2))&0ffh,w
  1982  001800  0100               	movlb	0	; () banked
  1983  001802  0100               	movlb	0	; () banked
  1984  001804  27DF               	addwf	((___ftadd@f1))&0ffh
  1985  001806  0100               	movlb	0	; () banked
  1986  001808  0100               	movlb	0	; () banked
  1987  00180A  51E3               	movf	((___ftadd@f2+1))&0ffh,w
  1988  00180C  0100               	movlb	0	; () banked
  1989  00180E  0100               	movlb	0	; () banked
  1990  001810  23E0               	addwfc	((___ftadd@f1+1))&0ffh
  1991  001812  0100               	movlb	0	; () banked
  1992  001814  0100               	movlb	0	; () banked
  1993  001816  51E4               	movf	((___ftadd@f2+2))&0ffh,w
  1994  001818  0100               	movlb	0	; () banked
  1995  00181A  0100               	movlb	0	; () banked
  1996  00181C  23E1               	addwfc	((___ftadd@f1+2))&0ffh
  1997                           
  1998                           	line	73
  1999  00181E  0100               	movlb	0	; () banked
  2000                           	
  2001  001820  0100               	movlb	0	; () banked
  2002  001822  AFE1               	btfss	((___ftadd@f1+2))&0ffh,(23)&7
  2003  001824  D001               	goto	u1661
  2004  001826  D001               	goto	u1660
  2005  001828                     u1661:
  2006  001828  D020               	goto	l388
  2007  00182A                     u1660:
  2008                           	line	74
  2009  00182A  0EFF               	movlw	low(0FFFFFFh)
  2010  00182C  0100               	movlb	0	; () banked
  2011  00182E  0100               	movlb	0	; () banked
  2012  001830  1BDF               	xorwf	((___ftadd@f1))&0ffh
  2013  001832  0EFF               	movlw	high(0FFFFFFh)
  2014  001834  0100               	movlb	0	; () banked
  2015  001836  0100               	movlb	0	; () banked
  2016  001838  1BE0               	xorwf	((___ftadd@f1+1))&0ffh
  2017  00183A  0EFF               	movlw	low highword(0FFFFFFh)
  2018  00183C  0100               	movlb	0	; () banked
  2019  00183E  0100               	movlb	0	; () banked
  2020  001840  1BE1               	xorwf	((___ftadd@f1+2))&0ffh
  2021                           
  2022                           	line	75
  2023  001842  0E01               	movlw	low(01h)
  2024  001844  0100               	movlb	0	; () banked
  2025  001846  0100               	movlb	0	; () banked
  2026  001848  27DF               	addwf	((___ftadd@f1))&0ffh
  2027  00184A  0E00               	movlw	high(01h)
  2028  00184C  0100               	movlb	0	; () banked
  2029  00184E  0100               	movlb	0	; () banked
  2030  001850  23E0               	addwfc	((___ftadd@f1+1))&0ffh
  2031  001852  0E00               	movlw	low highword(01h)
  2032  001854  0100               	movlb	0	; () banked
  2033  001856  0100               	movlb	0	; () banked
  2034  001858  23E1               	addwfc	((___ftadd@f1+2))&0ffh
  2035                           
  2036                           	line	76
  2037  00185A  0100               	movlb	0	; () banked
  2038  00185C  6FEA               	movwf	(??___ftadd+5+0)&0ffh
  2039  00185E  0E01               	movlw	low(01h)
  2040  001860  0100               	movlb	0	; () banked
  2041  001862  0100               	movlb	0	; () banked
  2042  001864  6FE7               	movwf	((___ftadd@sign1))&0ffh
  2043  001866  0100               	movlb	0	; () banked
  2044  001868  51EA               	movf	(??___ftadd+5+0)&0ffh,w
  2045                           	line	77
  2046                           	
  2047  00186A                     l410:		; BSR set to: ?
  2048                           
  2049                           	line	78
  2050                           	
  2051  00186A                     l388:		; BSR set to: ?
  2052                           
  2053                           	line	79
  2054  00186A  C0E9  F0EF         	movff	(___ftadd@exp1),0+(?___ftpack+02h)
  2055  00186E  0100               	movlb	0	; () banked
  2056  001870  0EDF               	movlw	low(___ftadd@f1)
  2057  001872  0100               	movlb	0	; () banked
  2058  001874  0100               	movlb	0	; () banked
  2059  001876  6FED               	movwf	((?___ftpack))&0ffh
  2060  001878  0100               	movlb	0	; () banked
  2061  00187A  0E00               	movlw	high(___ftadd@f1)
  2062  00187C  0100               	movlb	0	; () banked
  2063  00187E  6FEE               	movwf	((?___ftpack+1))&0ffh
  2064  001880  EC30  F010         	call	___ftpack	;wreg free
  2065                           	line	80
  2066  001884  0100               	movlb	0	; () banked
  2067  001886  0100               	movlb	0	; () banked
  2068  001888  51E7               	movf	((___ftadd@sign1))&0ffh,w
  2069  00188A  B4D8               	btfsc	status,2
  2070  00188C  D001               	goto	u1671
  2071  00188E  D001               	goto	u1670
  2072  001890                     u1671:
  2073  001890  D00C               	goto	l411
  2074  001892                     u1670:
  2075                           	line	81
  2076  001892  0E00               	movlw	low(0800000h)
  2077  001894  0100               	movlb	0	; () banked
  2078  001896  0100               	movlb	0	; () banked
  2079  001898  1BDF               	xorwf	((___ftadd@f1))&0ffh
  2080  00189A  0E00               	movlw	high(0800000h)
  2081  00189C  0100               	movlb	0	; () banked
  2082  00189E  0100               	movlb	0	; () banked
  2083  0018A0  1BE0               	xorwf	((___ftadd@f1+1))&0ffh
  2084  0018A2  0E80               	movlw	low highword(0800000h)
  2085  0018A4  0100               	movlb	0	; () banked
  2086  0018A6  0100               	movlb	0	; () banked
  2087  0018A8  1BE1               	xorwf	((___ftadd@f1+2))&0ffh
  2088                           
  2089                           	
  2090  0018AA                     l411:		; BSR set to: ?
  2091                           
  2092                           	line	82
  2093  0018AA  C0DF  F0DF         	movff	(___ftadd@f1),(?___ftadd)
  2094  0018AE  C0E0  F0E0         	movff	(___ftadd@f1+1),(?___ftadd+1)
  2095  0018B2  C0E1  F0E1         	movff	(___ftadd@f1+2),(?___ftadd+2)
  2096  0018B6  D000               	goto	l385
  2097                           	line	83
  2098  0018B8                     l385:
  2099                           			; BSR set to: ?
  2100                           
  2101  0018B8  0012               	return
  2102                           	opt stack 0
  2103                           GLOBAL __end_of___ftadd
  2104  0018BA                     	__end_of___ftadd:
  2105                           	FNSIZE	___ftadd,6,6
  2106                           ; =============== function ___ftadd ends =======
                                 =====
  2107                           
  2108                           	signat	___ftadd,8315
  2109                           	global	_LCD_Out
  2110                           	global	??_LCD_Out
  2111                           	global	?_LCD_Out
  2112                                   psect   text5,class=CODE,space=0,reloc=2
  2113                           
  2114                           	opt lm
  2115                           	file	"A:\OneDrive\School\College\Junior\Fa23\Em
                                 b Sys\c\hw5\stepper\lcd_portd.c"
  2116                           	line	87
  2117  000000                     	__size_of_LCD_Out	equ	__end_of_LCD_Out-_LCD_Out
  2118                           ;lcd_portd.c: 86: void LCD_Out(long int DATA, un
                                 signed char D, unsigned char N)
  2119                           ;lcd_portd.c: 87: {
  2120                           	
  2121  001C0C                     _LCD_Out:		; BSR set to: ?
  2122                           
  2123                           	opt stack 30
  2124                           	line	90
  2125  001C0C  0100               	movlb	0	; () banked
  2126  001C0E  0100               	movlb	0	; () banked
  2127  001C10  AFE2               	btfss	((LCD_Out@DATA+3))&0ffh,7
  2128  001C12  D001               	goto	u841
  2129  001C14  D001               	goto	u840
  2130  001C16                     u841:
  2131  001C16  D01B               	goto	l131
  2132  001C18                     u840:
  2133                           	line	91
  2134                           ;lcd_portd.c: 91: LCD_Write('-');
  2135  001C18  0100               	movlb	0	; () banked
  2136  001C1A  6FF0               	movwf	(??_LCD_Out+11+0)&0ffh
  2137  001C1C  0E2D               	movlw	low(02Dh)
  2138  001C1E  0100               	movlb	0	; () banked
  2139  001C20  0100               	movlb	0	; () banked
  2140  001C22  6FF1               	movwf	((?_LCD_Write))&0ffh
  2141  001C24  0100               	movlb	0	; () banked
  2142  001C26  51F0               	movf	(??_LCD_Out+11+0)&0ffh,w
  2143  001C28  ECBB  F012         	call	_LCD_Write	;wreg free
  2144                           	line	92
  2145                           ;lcd_portd.c: 92: DATA = -DATA;
  2146  001C2C  0100               	movlb	0	; () banked
  2147  001C2E  0100               	movlb	0	; () banked
  2148  001C30  1FE2               	comf	((LCD_Out@DATA+3))&0ffh
  2149  001C32  0100               	movlb	0	; () banked
  2150  001C34  1FE1               	comf	((LCD_Out@DATA+2))&0ffh
  2151  001C36  0100               	movlb	0	; () banked
  2152  001C38  1FE0               	comf	((LCD_Out@DATA+1))&0ffh
  2153  001C3A  0100               	movlb	0	; () banked
  2154  001C3C  6DDF               	negf	((LCD_Out@DATA))&0ffh
  2155  001C3E  0E00               	movlw	0
  2156  001C40  0100               	movlb	0	; () banked
  2157  001C42  23E0               	addwfc	((LCD_Out@DATA+1))&0ffh
  2158  001C44  0100               	movlb	0	; () banked
  2159  001C46  23E1               	addwfc	((LCD_Out@DATA+2))&0ffh
  2160  001C48  0100               	movlb	0	; () banked
  2161  001C4A  23E2               	addwfc	((LCD_Out@DATA+3))&0ffh
  2162                           	line	93
  2163                           ;lcd_portd.c: 93: }
  2164  001C4C  D00A               	goto	l132
  2165                           	line	94
  2166                           	
  2167  001C4E                     l131:		; BSR set to: ?
  2168                           
  2169                           ;lcd_portd.c: 94: else LCD_Write(' ');
  2170  001C4E  0100               	movlb	0	; () banked
  2171  001C50  6FF0               	movwf	(??_LCD_Out+11+0)&0ffh
  2172  001C52  0E20               	movlw	low(020h)
  2173  001C54  0100               	movlb	0	; () banked
  2174  001C56  0100               	movlb	0	; () banked
  2175  001C58  6FF1               	movwf	((?_LCD_Write))&0ffh
  2176  001C5A  0100               	movlb	0	; () banked
  2177  001C5C  51F0               	movf	(??_LCD_Out+11+0)&0ffh,w
  2178  001C5E  ECBB  F012         	call	_LCD_Write	;wreg free
  2179                           	
  2180  001C62                     l132:		; BSR set to: ?
  2181                           
  2182                           	line	95
  2183                           ;lcd_portd.c: 95: for (i=0; i<10; i++) {
  2184  001C62  0100               	movlb	0	; () banked
  2185  001C64  6FF0               	movwf	(??_LCD_Out+11+0)&0ffh
  2186  001C66  0E00               	movlw	low(0)
  2187  001C68  0100               	movlb	0	; () banked
  2188  001C6A  0100               	movlb	0	; () banked
  2189  001C6C  6FE5               	movwf	((LCD_Out@i))&0ffh
  2190  001C6E  0100               	movlb	0	; () banked
  2191  001C70  51F0               	movf	(??_LCD_Out+11+0)&0ffh,w
  2192  001C72  0E09               	movlw	(0Ah-1)
  2193  001C74  0100               	movlb	0	; () banked
  2194  001C76  0100               	movlb	0	; () banked
  2195  001C78  65E5               	cpfsgt	((LCD_Out@i))&0ffh
  2196  001C7A  D001               	goto	u851
  2197  001C7C  D001               	goto	u850
  2198  001C7E                     u851:
  2199  001C7E  D001               	goto	l133
  2200  001C80                     u850:
  2201  001C80  D04E               	goto	l134
  2202                           	
  2203  001C82                     l133:		; BSR set to: ?
  2204                           
  2205                           	line	96
  2206                           ;lcd_portd.c: 96: A[i] = DATA % 10;
  2207  001C82  0100               	movlb	0	; () banked
  2208  001C84  0EE6               	movlw	low(LCD_Out@A)
  2209  001C86  0100               	movlb	0	; () banked
  2210  001C88  0100               	movlb	0	; () banked
  2211  001C8A  25E5               	addwf	((LCD_Out@i))&0ffh,w
  2212  001C8C  6EE9               	movwf	c:fsr0l
  2213  001C8E  6AEA               	clrf	1+c:fsr0l
  2214  001C90  0100               	movlb	0	; () banked
  2215  001C92  0E00               	movlw	high(LCD_Out@A)
  2216  001C94  22EA               	addwfc	1+c:fsr0l
  2217  001C96  0E0A               	movlw	low(0Ah)
  2218  001C98  0100               	movlb	0	; () banked
  2219  001C9A  0100               	movlb	0	; () banked
  2220  001C9C  6FF5               	movwf	(0+(?___almod+04h))&0ffh
  2221  001C9E  0E00               	movlw	high(0Ah)
  2222  001CA0  0100               	movlb	0	; () banked
  2223  001CA2  6FF6               	movwf	(1+(?___almod+04h))&0ffh
  2224  001CA4  0E00               	movlw	low highword(0Ah)
  2225  001CA6  0100               	movlb	0	; () banked
  2226  001CA8  6FF7               	movwf	(2+(?___almod+04h))&0ffh
  2227  001CAA  0E00               	movlw	high highword(0Ah)
  2228  001CAC  0100               	movlb	0	; () banked
  2229  001CAE  6FF8               	movwf	(3+(?___almod+04h))&0ffh
  2230  001CB0  C0DF  F0F1         	movff	(LCD_Out@DATA),(?___almod)
  2231  001CB4  C0E0  F0F2         	movff	(LCD_Out@DATA+1),(?___almod+1)
  2232  001CB8  C0E1  F0F3         	movff	(LCD_Out@DATA+2),(?___almod+2)
  2233  001CBC  C0E2  F0F4         	movff	(LCD_Out@DATA+3),(?___almod+3)
  2234  001CC0  ECCA  F00E         	call	___almod	;wreg free
  2235  001CC4  0100               	movlb	0	; () banked
  2236  001CC6  0100               	movlb	0	; () banked
  2237  001CC8  51F1               	movf	(0+?___almod)&0ffh,w
  2238  001CCA  6EEF               	movwf	indf0
  2239                           
  2240                           	line	97
  2241                           ;lcd_portd.c: 97: DATA = DATA / 10;
  2242  001CCC  0E0A               	movlw	low(0Ah)
  2243  001CCE  0100               	movlb	0	; () banked
  2244  001CD0  0100               	movlb	0	; () banked
  2245  001CD2  6FF5               	movwf	(0+(?___aldiv+04h))&0ffh
  2246  001CD4  0E00               	movlw	high(0Ah)
  2247  001CD6  0100               	movlb	0	; () banked
  2248  001CD8  6FF6               	movwf	(1+(?___aldiv+04h))&0ffh
  2249  001CDA  0E00               	movlw	low highword(0Ah)
  2250  001CDC  0100               	movlb	0	; () banked
  2251  001CDE  6FF7               	movwf	(2+(?___aldiv+04h))&0ffh
  2252  001CE0  0E00               	movlw	high highword(0Ah)
  2253  001CE2  0100               	movlb	0	; () banked
  2254  001CE4  6FF8               	movwf	(3+(?___aldiv+04h))&0ffh
  2255  001CE6  C0DF  F0F1         	movff	(LCD_Out@DATA),(?___aldiv)
  2256  001CEA  C0E0  F0F2         	movff	(LCD_Out@DATA+1),(?___aldiv+1)
  2257  001CEE  C0E1  F0F3         	movff	(LCD_Out@DATA+2),(?___aldiv+2)
  2258  001CF2  C0E2  F0F4         	movff	(LCD_Out@DATA+3),(?___aldiv+3)
  2259  001CF6  EC5D  F00C         	call	___aldiv	;wreg free
  2260  001CFA  C0F1  F0DF         	movff	0+?___aldiv,(LCD_Out@DATA)
  2261  001CFE  C0F2  F0E0         	movff	1+?___aldiv,(LCD_Out@DATA+1)
  2262  001D02  C0F3  F0E1         	movff	2+?___aldiv,(LCD_Out@DATA+2)
  2263  001D06  C0F4  F0E2         	movff	3+?___aldiv,(LCD_Out@DATA+3)
  2264                           	line	95
  2265  001D0A  0100               	movlb	0	; () banked
  2266  001D0C  0100               	movlb	0	; () banked
  2267  001D0E  2BE5               	incf	((LCD_Out@i))&0ffh
  2268  001D10  0E09               	movlw	(0Ah-1)
  2269  001D12  0100               	movlb	0	; () banked
  2270  001D14  0100               	movlb	0	; () banked
  2271  001D16  65E5               	cpfsgt	((LCD_Out@i))&0ffh
  2272  001D18  D001               	goto	u861
  2273  001D1A  D001               	goto	u860
  2274  001D1C                     u861:
  2275  001D1C  D7B2               	goto	l133
  2276  001D1E                     u860:
  2277                           	
  2278  001D1E                     l134:		; BSR set to: ?
  2279                           
  2280                           	line	99
  2281                           ;lcd_portd.c: 98: }
  2282                           ;lcd_portd.c: 99: for (i=D; i>0; i--) {
  2283  001D1E  C0E3  F0E5         	movff	(LCD_Out@D),(LCD_Out@i)
  2284  001D22  0100               	movlb	0	; () banked
  2285  001D24  0100               	movlb	0	; () banked
  2286  001D26  67E5               	tstfsz	((LCD_Out@i))&0ffh
  2287  001D28  D001               	goto	u871
  2288  001D2A  D001               	goto	u870
  2289  001D2C                     u871:
  2290  001D2C  D001               	goto	l136
  2291  001D2E                     u870:
  2292  001D2E  D031               	goto	l137
  2293                           	
  2294  001D30                     l136:		; BSR set to: ?
  2295                           
  2296                           	line	100
  2297                           ;lcd_portd.c: 100: if (i == N) LCD_Write('.');
  2298  001D30  0100               	movlb	0	; () banked
  2299  001D32  0100               	movlb	0	; () banked
  2300  001D34  51E4               	movf	((LCD_Out@N))&0ffh,w
  2301  001D36  0100               	movlb	0	; () banked
  2302  001D38  0100               	movlb	0	; () banked
  2303  001D3A  63E5               	cpfseq	((LCD_Out@i))&0ffh
  2304  001D3C  D001               	goto	u881
  2305  001D3E  D001               	goto	u880
  2306  001D40                     u881:
  2307  001D40  D00A               	goto	l139
  2308  001D42                     u880:
  2309  001D42  0100               	movlb	0	; () banked
  2310  001D44  6FF0               	movwf	(??_LCD_Out+11+0)&0ffh
  2311  001D46  0E2E               	movlw	low(02Eh)
  2312  001D48  0100               	movlb	0	; () banked
  2313  001D4A  0100               	movlb	0	; () banked
  2314  001D4C  6FF1               	movwf	((?_LCD_Write))&0ffh
  2315  001D4E  0100               	movlb	0	; () banked
  2316  001D50  51F0               	movf	(??_LCD_Out+11+0)&0ffh,w
  2317  001D52  ECBB  F012         	call	_LCD_Write	;wreg free
  2318                           	
  2319  001D56                     l139:		; BSR set to: ?
  2320                           
  2321                           	line	101
  2322                           ;lcd_portd.c: 101: LCD_Write(A[i-1] + '0');
  2323  001D56  C0E5  F0F0         	movff	(LCD_Out@i),??_LCD_Out+11+0
  2324  001D5A  0EFF               	movlw	-1
  2325  001D5C  0100               	movlb	0	; () banked
  2326  001D5E  27F0               	addwf	(??_LCD_Out+11+0)&0ffh
  2327  001D60  0100               	movlb	0	; () banked
  2328  001D62  0EE6               	movlw	low(LCD_Out@A)
  2329  001D64  0100               	movlb	0	; () banked
  2330  001D66  25F0               	addwf	(??_LCD_Out+11+0)&0ffh,w
  2331  001D68  6EE9               	movwf	c:fsr0l
  2332  001D6A  6AEA               	clrf	1+c:fsr0l
  2333  001D6C  0100               	movlb	0	; () banked
  2334  001D6E  0E00               	movlw	high(LCD_Out@A)
  2335  001D70  22EA               	addwfc	1+c:fsr0l
  2336  001D72  50EF               	movf	indf0,w
  2337  001D74  0F30               	addlw	low(030h)
  2338  001D76  0100               	movlb	0	; () banked
  2339  001D78  0100               	movlb	0	; () banked
  2340  001D7A  6FF1               	movwf	((?_LCD_Write))&0ffh
  2341  001D7C  ECBB  F012         	call	_LCD_Write	;wreg free
  2342                           	line	99
  2343  001D80  0100               	movlb	0	; () banked
  2344  001D82  0100               	movlb	0	; () banked
  2345  001D84  07E5               	decf	((LCD_Out@i))&0ffh
  2346  001D86  0100               	movlb	0	; () banked
  2347  001D88  0100               	movlb	0	; () banked
  2348  001D8A  67E5               	tstfsz	((LCD_Out@i))&0ffh
  2349  001D8C  D001               	goto	u891
  2350  001D8E  D001               	goto	u890
  2351  001D90                     u891:
  2352  001D90  D7CF               	goto	l136
  2353  001D92                     u890:
  2354                           	
  2355  001D92                     l137:		; BSR set to: ?
  2356                           
  2357                           	line	103
  2358                           ;lcd_portd.c: 102: }
  2359                           ;lcd_portd.c: 103: }
  2360  001D92                     l130:
  2361                           			; BSR set to: ?
  2362                           
  2363  001D92  0012               	return
  2364                           	opt stack 0
  2365                           GLOBAL __end_of_LCD_Out
  2366  001D94                     	__end_of_LCD_Out:
  2367                           	FNSIZE	_LCD_Out,12,6
  2368                           ; =============== function _LCD_Out ends =======
                                 =====
  2369                           
  2370                           	signat	_LCD_Out,12408
  2371                           	global	___wmul
  2372                           	global	??___wmul
  2373                           	global	?___wmul
  2374                                   psect   text6,class=CODE,space=0,reloc=2
  2375                           
  2376                           	opt lm
  2377                           	file	"C:\Program Files (x86)\HI-TECH Software\P
                                 ICC-18\PRO\9.63\sources\wmul.c"
  2378                           	line	3
  2379  000000                     	__size_of___wmul	equ	__end_of___wmul-___wmul
  2380                           	
  2381  0024C2                     ___wmul:		; BSR set to: ?
  2382                           
  2383                           	opt stack 30
  2384                           	line	4
  2385  0024C2  0E00               	movlw	low(0)
  2386  0024C4  0100               	movlb	0	; () banked
  2387  0024C6  0100               	movlb	0	; () banked
  2388  0024C8  6FE3               	movwf	((___wmul@product))&0ffh
  2389  0024CA  0E00               	movlw	high(0)
  2390  0024CC  0100               	movlb	0	; () banked
  2391  0024CE  6FE4               	movwf	((___wmul@product+1))&0ffh
  2392                           	line	6
  2393                           	
  2394  0024D0                     l525:		; BSR set to: ?
  2395                           
  2396                           	line	7
  2397  0024D0  0100               	movlb	0	; () banked
  2398                           	
  2399  0024D2  0100               	movlb	0	; () banked
  2400  0024D4  A1DF               	btfss	((___wmul@multiplier))&0ffh,(0)&7
  2401  0024D6  D001               	goto	u1851
  2402  0024D8  D001               	goto	u1850
  2403  0024DA                     u1851:
  2404  0024DA  D00C               	goto	l526
  2405  0024DC                     u1850:
  2406                           	line	8
  2407  0024DC  0100               	movlb	0	; () banked
  2408  0024DE  0100               	movlb	0	; () banked
  2409  0024E0  51E1               	movf	((___wmul@multiplicand))&0ffh,w
  2410  0024E2  0100               	movlb	0	; () banked
  2411  0024E4  0100               	movlb	0	; () banked
  2412  0024E6  27E3               	addwf	((___wmul@product))&0ffh
  2413  0024E8  0100               	movlb	0	; () banked
  2414  0024EA  0100               	movlb	0	; () banked
  2415  0024EC  51E2               	movf	((___wmul@multiplicand+1))&0ffh,w
  2416  0024EE  0100               	movlb	0	; () banked
  2417  0024F0  0100               	movlb	0	; () banked
  2418  0024F2  23E4               	addwfc	((___wmul@product+1))&0ffh
  2419                           
  2420                           	
  2421  0024F4                     l526:		; BSR set to: ?
  2422                           
  2423                           	line	9
  2424  0024F4  0100               	movlb	0	; () banked
  2425  0024F6  90D8               	bcf	status,0
  2426  0024F8  0100               	movlb	0	; () banked
  2427  0024FA  37E1               	rlcf	((___wmul@multiplicand))&0ffh
  2428  0024FC  0100               	movlb	0	; () banked
  2429  0024FE  37E2               	rlcf	((___wmul@multiplicand+1))&0ffh
  2430                           	line	10
  2431  002500  0100               	movlb	0	; () banked
  2432  002502  90D8               	bcf	status,0
  2433  002504  0100               	movlb	0	; () banked
  2434  002506  33E0               	rrcf	((___wmul@multiplier+1))&0ffh
  2435  002508  0100               	movlb	0	; () banked
  2436  00250A  33DF               	rrcf	((___wmul@multiplier))&0ffh
  2437                           	line	11
  2438  00250C  0100               	movlb	0	; () banked
  2439  00250E  0100               	movlb	0	; () banked
  2440  002510  51E0               	movf	((___wmul@multiplier+1))&0ffh,w
  2441  002512  11DF               	iorwf ((___wmul@multiplier))&0ffh,w
  2442                           
  2443  002514  A4D8               	btfss	status,2
  2444  002516  D001               	goto	u1861
  2445  002518  D001               	goto	u1860
  2446  00251A                     u1861:
  2447  00251A  D7DA               	goto	l525
  2448  00251C                     u1860:
  2449                           	
  2450  00251C                     l524:		; BSR set to: ?
  2451                           
  2452                           	line	12
  2453  00251C  C0E3  F0DF         	movff	(___wmul@product),(?___wmul)
  2454  002520  C0E4  F0E0         	movff	(___wmul@product+1),(?___wmul+1)
  2455  002524  D000               	goto	l522
  2456                           	line	13
  2457  002526                     l522:
  2458                           			; BSR set to: ?
  2459                           
  2460  002526  0012               	return
  2461                           	opt stack 0
  2462                           GLOBAL __end_of___wmul
  2463  002528                     	__end_of___wmul:
  2464                           	FNSIZE	___wmul,2,4
  2465                           ; =============== function ___wmul ends ========
                                 ====
  2466                           
  2467                           	signat	___wmul,8314
  2468                           	global	___fttol
  2469                           	global	??___fttol
  2470                           	global	?___fttol
  2471                                   psect   text7,class=CODE,space=0,reloc=2
  2472                           
  2473                           	opt lm
  2474                           	file	"C:\Program Files (x86)\HI-TECH Software\P
                                 ICC-18\PRO\9.63\sources\fttol.c"
  2475                           	line	16
  2476  000000                     	__size_of___fttol	equ	__end_of___fttol-___fttol
  2477                           	
  2478  001F1C                     ___fttol:		; BSR set to: ?
  2479                           
  2480                           	opt stack 30
  2481                           	line	20
  2482  001F1C  0100               	movlb	0	; () banked
  2483  001F1E  0EE4               	movlw	low(___fttol@exp1)
  2484  001F20  0100               	movlb	0	; () banked
  2485  001F22  0100               	movlb	0	; () banked
  2486  001F24  6FEF               	movwf	(0+(?___ftunpack+02h))&0ffh
  2487  001F26  0100               	movlb	0	; () banked
  2488  001F28  0E00               	movlw	high(___fttol@exp1)
  2489  001F2A  0100               	movlb	0	; () banked
  2490  001F2C  6FF0               	movwf	(1+(?___ftunpack+02h))&0ffh
  2491  001F2E  0100               	movlb	0	; () banked
  2492  001F30  0EDF               	movlw	low(___fttol@f1)
  2493  001F32  0100               	movlb	0	; () banked
  2494  001F34  0100               	movlb	0	; () banked
  2495  001F36  6FED               	movwf	((?___ftunpack))&0ffh
  2496  001F38  0100               	movlb	0	; () banked
  2497  001F3A  0E00               	movlw	high(___fttol@f1)
  2498  001F3C  0100               	movlb	0	; () banked
  2499  001F3E  6FEE               	movwf	((?___ftunpack+1))&0ffh
  2500  001F40  ECCF  F010         	call	___ftunpack	;wreg free
  2501  001F44  0100               	movlb	0	; () banked
  2502  001F46  0100               	movlb	0	; () banked
  2503  001F48  6FE3               	movwf	((___fttol@sign1))&0ffh
  2504                           	line	21
  2505  001F4A  0100               	movlb	0	; () banked
  2506  001F4C  0100               	movlb	0	; () banked
  2507  001F4E  51DF               	movf	((___fttol@f1))&0ffh,w
  2508  001F50  0100               	movlb	0	; () banked
  2509  001F52  0100               	movlb	0	; () banked
  2510  001F54  6FE5               	movwf	((___fttol@lval))&0ffh
  2511  001F56  0100               	movlb	0	; () banked
  2512  001F58  0100               	movlb	0	; () banked
  2513  001F5A  51E0               	movf	((___fttol@f1+1))&0ffh,w
  2514  001F5C  0100               	movlb	0	; () banked
  2515  001F5E  6FE6               	movwf	1+((___fttol@lval))&0ffh
  2516                           	
  2517  001F60  0100               	movlb	0	; () banked
  2518  001F62  51E1               	movf	((___fttol@f1+2))&0ffh,w
  2519  001F64  0100               	movlb	0	; () banked
  2520  001F66  6FE7               	movwf	2+((___fttol@lval))&0ffh
  2521                           	
  2522  001F68  0100               	movlb	0	; () banked
  2523  001F6A  6BE8               	clrf	3+((___fttol@lval))&0ffh
  2524                           	line	22
  2525  001F6C  0E8E               	movlw	(08Eh)&0ffh
  2526  001F6E  0100               	movlb	0	; () banked
  2527  001F70  0100               	movlb	0	; () banked
  2528  001F72  5FE4               	subwf	((___fttol@exp1))&0ffh
  2529                           	line	23
  2530  001F74  0100               	movlb	0	; () banked
  2531  001F76  0100               	movlb	0	; () banked
  2532  001F78  AFE4               	btfss	((___fttol@exp1))&0ffh,7
  2533  001F7A  D001               	goto	u1771
  2534  001F7C  D001               	goto	u1770
  2535  001F7E                     u1771:
  2536  001F7E  D026               	goto	l437
  2537  001F80                     u1770:
  2538                           	line	24
  2539  001F80  0100               	movlb	0	; () banked
  2540  001F82  0100               	movlb	0	; () banked
  2541  001F84  51E4               	movf	((___fttol@exp1))&0ffh,w
  2542  001F86  0A80               	xorlw	80h
  2543  001F88  0F8F               	addlw	-((-15)^80h)
  2544  001F8A  B0D8               	btfsc	status,0
  2545  001F8C  D001               	goto	u1781
  2546  001F8E  D001               	goto	u1780
  2547  001F90                     u1781:
  2548  001F90  D00E               	goto	l441
  2549  001F92                     u1780:
  2550                           	line	25
  2551  001F92  0E00               	movlw	low(0)
  2552  001F94  0100               	movlb	0	; () banked
  2553  001F96  0100               	movlb	0	; () banked
  2554  001F98  6FDF               	movwf	((?___fttol))&0ffh
  2555  001F9A  0E00               	movlw	high(0)
  2556  001F9C  0100               	movlb	0	; () banked
  2557  001F9E  6FE0               	movwf	((?___fttol+1))&0ffh
  2558  001FA0  0E00               	movlw	low highword(0)
  2559  001FA2  0100               	movlb	0	; () banked
  2560  001FA4  6FE1               	movwf	((?___fttol+2))&0ffh
  2561  001FA6  0E00               	movlw	high highword(0)
  2562  001FA8  0100               	movlb	0	; () banked
  2563  001FAA  6FE2               	movwf	((?___fttol+3))&0ffh
  2564  001FAC  D058               	goto	l436
  2565                           	line	26
  2566                           	
  2567  001FAE                     l441:		; BSR set to: ?
  2568                           
  2569                           	line	27
  2570  001FAE  0100               	movlb	0	; () banked
  2571  001FB0  90D8               	bcf	status,0
  2572  001FB2  0100               	movlb	0	; () banked
  2573  001FB4  33E8               	rrcf	((___fttol@lval+3))&0ffh
  2574  001FB6  0100               	movlb	0	; () banked
  2575  001FB8  33E7               	rrcf	((___fttol@lval+2))&0ffh
  2576  001FBA  0100               	movlb	0	; () banked
  2577  001FBC  33E6               	rrcf	((___fttol@lval+1))&0ffh
  2578  001FBE  0100               	movlb	0	; () banked
  2579  001FC0  33E5               	rrcf	((___fttol@lval))&0ffh
  2580                           	line	28
  2581  001FC2  0100               	movlb	0	; () banked
  2582  001FC4  0100               	movlb	0	; () banked
  2583  001FC6  3FE4               	incfsz	((___fttol@exp1))&0ffh
  2584                           	
  2585  001FC8  D7F2               	goto	l441
  2586                           	
  2587  001FCA                     l440:		; BSR set to: ?
  2588                           
  2589                           	line	29
  2590  001FCA  D029               	goto	l442
  2591                           	
  2592  001FCC                     l437:		; BSR set to: ?
  2593                           
  2594                           	line	30
  2595  001FCC  0E1F               	movlw	(020h-1)
  2596  001FCE  0100               	movlb	0	; () banked
  2597  001FD0  0100               	movlb	0	; () banked
  2598  001FD2  65E4               	cpfsgt	((___fttol@exp1))&0ffh
  2599  001FD4  D001               	goto	u1791
  2600  001FD6  D001               	goto	u1790
  2601  001FD8                     u1791:
  2602  001FD8  D00E               	goto	l443
  2603  001FDA                     u1790:
  2604                           	line	31
  2605  001FDA  0E00               	movlw	low(0)
  2606  001FDC  0100               	movlb	0	; () banked
  2607  001FDE  0100               	movlb	0	; () banked
  2608  001FE0  6FDF               	movwf	((?___fttol))&0ffh
  2609  001FE2  0E00               	movlw	high(0)
  2610  001FE4  0100               	movlb	0	; () banked
  2611  001FE6  6FE0               	movwf	((?___fttol+1))&0ffh
  2612  001FE8  0E00               	movlw	low highword(0)
  2613  001FEA  0100               	movlb	0	; () banked
  2614  001FEC  6FE1               	movwf	((?___fttol+2))&0ffh
  2615  001FEE  0E00               	movlw	high highword(0)
  2616  001FF0  0100               	movlb	0	; () banked
  2617  001FF2  6FE2               	movwf	((?___fttol+3))&0ffh
  2618  001FF4  D034               	goto	l436
  2619                           	
  2620  001FF6                     l443:		; BSR set to: ?
  2621                           
  2622                           	line	32
  2623  001FF6  D00D               	goto	l444
  2624                           	
  2625  001FF8                     l445:		; BSR set to: ?
  2626                           
  2627                           	line	33
  2628  001FF8  0100               	movlb	0	; () banked
  2629  001FFA  90D8               	bcf	status,0
  2630  001FFC  0100               	movlb	0	; () banked
  2631  001FFE  37E5               	rlcf	((___fttol@lval))&0ffh
  2632  002000  0100               	movlb	0	; () banked
  2633+ 002002  37E6               	rlcf	((___fttol@lval+1))&0ffh
  2634+ 002004  0100               	movlb	0	; () banked
  2635+ 002006  37E7               	rlcf	((___fttol@lval+2))&0ffh
  2636+ 002008  0100               	movlb	0	; () banked
  2637+ 00200A  37E8               	rlcf	((___fttol@lval+3))&0ffh
  2638+                          	line	34
  2639+ 00200C  0100               	movlb	0	; () banked
  2640+ 00200E  0100               	movlb	0	; () banked
  2641+ 002010  07E4               	decf	((___fttol@exp1))&0ffh
  2642+                          	line	35
  2643+                          	
  2644+ 002012                     l444:		; BSR set to: ?
  2645+                          
  2646+                          	line	32
  2647+ 002012  0100               	movlb	0	; () banked
  2648+ 002014  0100               	movlb	0	; () banked
  2649+ 002016  67E4               	tstfsz	((___fttol@exp1))&0ffh
  2650+ 002018  D001               	goto	u1801
  2651+ 00201A  D001               	goto	u1800
  2652+ 00201C                     u1801:
  2653+ 00201C  D7ED               	goto	l445
  2654+ 00201E                     u1800:
  2655+                          	
  2656+ 00201E                     l446:		; BSR set to: ?
  2657+                          
  2658+                          	line	36
  2659+                          	
  2660+ 00201E                     l442:		; BSR set to: ?
  2661+                          
  2662+                          	line	37
  2663+ 00201E  0100               	movlb	0	; () banked
  2664+ 002020  0100               	movlb	0	; () banked
  2665+ 002022  51E3               	movf	((___fttol@sign1))&0ffh,w
  2666+ 002024  B4D8               	btfsc	status,2
  2667+ 002026  D001               	goto	u1811
  2668+ 002028  D001               	goto	u1810
  2669+ 00202A                     u1811:
  2670+ 00202A  D010               	goto	l447
  2671+ 00202C                     u1810:
  2672+                          	line	38
  2673+ 00202C  0100               	movlb	0	; () banked
  2674+ 00202E  0100               	movlb	0	; () banked
  2675+ 002030  1FE8               	comf	((___fttol@lval+3))&0ffh
  2676+ 002032  0100               	movlb	0	; () banked
  2677+ 002034  1FE7               	comf	((___fttol@lval+2))&0ffh
  2678+ 002036  0100               	movlb	0	; () banked
  2679+ 002038  1FE6               	comf	((___fttol@lval+1))&0ffh
  2680+ 00203A  0100               	movlb	0	; () banked
  2681+ 00203C  6DE5               	negf	((___fttol@lval))&0ffh
  2682+ 00203E  0E00               	movlw	0
  2683+ 002040  0100               	movlb	0	; () banked
  2684+ 002042  23E6               	addwfc	((___fttol@lval+1))&0ffh
  2685+ 002044  0100               	movlb	0	; () banked
  2686+ 002046  23E7               	addwfc	((___fttol@lval+2))&0ffh
  2687+ 002048  0100               	movlb	0	; () banked
  2688+ 00204A  23E8               	addwfc	((___fttol@lval+3))&0ffh
  2689+                          	
  2690+ 00204C                     l447:		; BSR set to: ?
  2691+                          
  2692+                          	line	39
  2693+ 00204C  C0E5  F0DF         	movff	(___fttol@lval),(?___fttol)
  2694+ 002050  C0E6  F0E0         	movff	(___fttol@lval+1),(?___fttol+1)
  2695+ 002054  C0E7  F0E1         	movff	(___fttol@lval+2),(?___fttol+2)
  2696+ 002058  C0E8  F0E2         	movff	(___fttol@lval+3),(?___fttol+3)
  2697+ 00205C  D000               	goto	l436
  2698+                          	line	40
  2699+ 00205E                     l436:
  2700+                          			; BSR set to: ?
  2701+                          
  2702+ 00205E  0012               	return
  2703+                          	opt stack 0
  2704+                          GLOBAL __end_of___fttol
  2705+ 002060                     	__end_of___fttol:
  2706+                          	FNSIZE	___fttol,6,4
  2707+                          ; =============== function ___fttol ends =======
      +                          =====
  2708+                          
  2709+                          	signat	___fttol,4220
  2710+                          	global	_LCD_Init
  2711+                          	global	??_LCD_Init
  2712+                          	global	?_LCD_Init
  2713+                                  psect   text8,class=CODE,space=0,reloc=2
  2714+                          
  2715+                          	opt lm
  2716+                          	file	"A:\OneDrive\School\College\Junior\Fa23\Em
      +                          b Sys\c\hw5\stepper\lcd_portd.c"
  2717+                          	line	73
  2718+ 000000                     	__size_of_LCD_Init	equ	__end_of_LCD_Init-_LCD_I
      +                          nit
  2719+                          ;lcd_portd.c: 72: void LCD_Init(void)
  2720+                          ;lcd_portd.c: 73: {
  2721+                          	
  2722+ 002248                     _LCD_Init:		; BSR set to: ?
  2723+                          
  2724+                          	opt stack 30
  2725+                          	line	74
  2726+                          ;lcd_portd.c: 74: TRISD = 0;
  2727+ 002248  0E00               	movlw	low(0)
  2728+ 00224A  6E95               	movwf	((c:3989)),c	;volatile
  2729+                          	line	75
  2730+                          ;lcd_portd.c: 75: RD1 = 0;
  2731+ 00224C  9283               	bcf	c:(31769/8),(31769)&7	;volatile
  2732+                          	line	76
  2733+                          ;lcd_portd.c: 76: LCD_Inst(0x33);
  2734+ 00224E  0100               	movlb	0	; () banked
  2735+ 002250  6FDF               	movwf	(??_LCD_Init+0+0)&0ffh
  2736+ 002252  0E33               	movlw	low(033h)
  2737+ 002254  0100               	movlb	0	; () banked
  2738+ 002256  0100               	movlb	0	; () banked
  2739+ 002258  6FE1               	movwf	((?_LCD_Inst))&0ffh
  2740+ 00225A  0100               	movlb	0	; () banked
  2741+ 00225C  51DF               	movf	(??_LCD_Init+0+0)&0ffh,w
  2742+ 00225E  EC94  F012         	call	_LCD_Inst	;wreg free
  2743+                          	line	77
  2744+                          ;lcd_portd.c: 77: LCD_Inst(0x32);
  2745+ 002262  0100               	movlb	0	; () banked
  2746+ 002264  6FDF               	movwf	(??_LCD_Init+0+0)&0ffh
  2747+ 002266  0E32               	movlw	low(032h)
  2748+ 002268  0100               	movlb	0	; () banked
  2749+ 00226A  0100               	movlb	0	; () banked
  2750+ 00226C  6FE1               	movwf	((?_LCD_Inst))&0ffh
  2751+ 00226E  0100               	movlb	0	; () banked
  2752+ 002270  51DF               	movf	(??_LCD_Init+0+0)&0ffh,w
  2753+ 002272  EC94  F012         	call	_LCD_Inst	;wreg free
  2754+                          	line	78
  2755+                          ;lcd_portd.c: 78: LCD_Inst(0x28);
  2756+ 002276  0100               	movlb	0	; () banked
  2757+ 002278  6FDF               	movwf	(??_LCD_Init+0+0)&0ffh
  2758+ 00227A  0E28               	movlw	low(028h)
  2759+ 00227C  0100               	movlb	0	; () banked
  2760+ 00227E  0100               	movlb	0	; () banked
  2761+ 002280  6FE1               	movwf	((?_LCD_Inst))&0ffh
  2762+ 002282  0100               	movlb	0	; () banked
  2763+ 002284  51DF               	movf	(??_LCD_Init+0+0)&0ffh,w
  2764+ 002286  EC94  F012         	call	_LCD_Inst	;wreg free
  2765+                          	line	79
  2766+                          ;lcd_portd.c: 79: LCD_Inst(0x0E);
  2767+ 00228A  0100               	movlb	0	; () banked
  2768+ 00228C  6FDF               	movwf	(??_LCD_Init+0+0)&0ffh
  2769+ 00228E  0E0E               	movlw	low(0Eh)
  2770+ 002290  0100               	movlb	0	; () banked
  2771+ 002292  0100               	movlb	0	; () banked
  2772+ 002294  6FE1               	movwf	((?_LCD_Inst))&0ffh
  2773+ 002296  0100               	movlb	0	; () banked
  2774+ 002298  51DF               	movf	(??_LCD_Init+0+0)&0ffh,w
  2775+ 00229A  EC94  F012         	call	_LCD_Inst	;wreg free
  2776+                          	line	80
  2777+                          ;lcd_portd.c: 80: LCD_Inst(0x01);
  2778+ 00229E  0100               	movlb	0	; () banked
  2779+ 0022A0  6FDF               	movwf	(??_LCD_Init+0+0)&0ffh
  2780+ 0022A2  0E01               	movlw	low(01h)
  2781+ 0022A4  0100               	movlb	0	; () banked
  2782+ 0022A6  0100               	movlb	0	; () banked
  2783+ 0022A8  6FE1               	movwf	((?_LCD_Inst))&0ffh
  2784+ 0022AA  0100               	movlb	0	; () banked
  2785+ 0022AC  51DF               	movf	(??_LCD_Init+0+0)&0ffh,w
  2786+ 0022AE  EC94  F012         	call	_LCD_Inst	;wreg free
  2787+                          	line	81
  2788+                          ;lcd_portd.c: 81: LCD_Inst(0x06);
  2789+ 0022B2  0100               	movlb	0	; () banked
  2790+ 0022B4  6FDF               	movwf	(??_LCD_Init+0+0)&0ffh
  2791+ 0022B6  0E06               	movlw	low(06h)
  2792+ 0022B8  0100               	movlb	0	; () banked
  2793+ 0022BA  0100               	movlb	0	; () banked
  2794+ 0022BC  6FE1               	movwf	((?_LCD_Inst))&0ffh
  2795+ 0022BE  0100               	movlb	0	; () banked
  2796+ 0022C0  51DF               	movf	(??_LCD_Init+0+0)&0ffh,w
  2797+ 0022C2  EC94  F012         	call	_LCD_Inst	;wreg free
  2798+                          	line	82
  2799+                          ;lcd_portd.c: 82: Wait_ms(100);
  2800+ 0022C6  0E64               	movlw	low(064h)
  2801+ 0022C8  0100               	movlb	0	; () banked
  2802+ 0022CA  0100               	movlb	0	; () banked
  2803+ 0022CC  6FE3               	movwf	((?_Wait_ms))&0ffh
  2804+ 0022CE  0E00               	movlw	high(064h)
  2805+ 0022D0  0100               	movlb	0	; () banked
  2806+ 0022D2  6FE4               	movwf	((?_Wait_ms+1))&0ffh
  2807+ 0022D4  ECAF  F011         	call	_Wait_ms	;wreg free
  2808+                          	line	83
  2809+                          ;lcd_portd.c: 83: }
  2810+ 0022D8                     l129:
  2811+                          			; BSR set to: ?
  2812+                          
  2813+ 0022D8  0012               	return
  2814+                          	opt stack 0
  2815+                          GLOBAL __end_of_LCD_Init
  2816+ 0022DA                     	__end_of_LCD_Init:
  2817+                          	FNSIZE	_LCD_Init,1,0
  2818+                          ; =============== function _LCD_Init ends ======
      +                          ======
  2819+                          
  2820+                          	signat	_LCD_Init,88
  2821+                          	global	_LCD_Move
  2822+                          	global	??_LCD_Move
  2823+                          	global	?_LCD_Move
  2824+                                  psect   text9,class=CODE,space=0,reloc=2
  2825+                          
  2826+                          	opt lm
  2827+                          	file	"A:\OneDrive\School\College\Junior\Fa23\Em
      +                          b Sys\c\hw5\stepper\lcd_portd.c"
  2828+                          	line	54
  2829+ 000000                     	__size_of_LCD_Move	equ	__end_of_LCD_Move-_LCD_M
      +                          ove
  2830+                          ;lcd_portd.c: 53: void LCD_Move(unsigned char Ro
      +                          w, unsigned char Col)
  2831+                          ;lcd_portd.c: 54: {
  2832+                          	
  2833+ 0022DA                     _LCD_Move:		; BSR set to: ?
  2834+                          
  2835+                          	opt stack 30
  2836+                          	line	55
  2837+ 0022DA  0100               	movlb	0	; () banked
  2838+ 0022DC  0100               	movlb	0	; () banked
  2839+ 0022DE  67DF               	tstfsz	((LCD_Move@Row))&0ffh
  2840+ 0022E0  D001               	goto	u801
  2841+ 0022E2  D001               	goto	u800
  2842+ 0022E4                     u801:
  2843+ 0022E4  D009               	goto	l124
  2844+ 0022E6                     u800:
  2845+ 0022E6  0100               	movlb	0	; () banked
  2846+ 0022E8  0100               	movlb	0	; () banked
  2847+ 0022EA  51E0               	movf	((LCD_Move@Col))&0ffh,w
  2848+ 0022EC  0F80               	addlw	low(080h)
  2849+ 0022EE  0100               	movlb	0	; () banked
  2850+ 0022F0  0100               	movlb	0	; () banked
  2851+ 0022F2  6FE1               	movwf	((?_LCD_Inst))&0ffh
  2852+ 0022F4  EC94  F012         	call	_LCD_Inst	;wreg free
  2853+                          	
  2854+ 0022F8                     l124:		; BSR set to: ?
  2855+                          
  2856+                          	line	56
  2857+                          ;lcd_portd.c: 56: if (Row == 1) LCD_Inst(0xC0 + 
      +                          Col);
  2858+ 0022F8  0100               	movlb	0	; () banked
  2859+ 0022FA  0100               	movlb	0	; () banked
  2860+ 0022FC  05DF               	decf	((LCD_Move@Row))&0ffh,w
  2861+                          
  2862+ 0022FE  A4D8               	btfss	status,2
  2863+ 002300  D001               	goto	u811
  2864+ 002302  D001               	goto	u810
  2865+ 002304                     u811:
  2866+ 002304  D009               	goto	l125
  2867+ 002306                     u810:
  2868+ 002306  0100               	movlb	0	; () banked
  2869+ 002308  0100               	movlb	0	; () banked
  2870+ 00230A  51E0               	movf	((LCD_Move@Col))&0ffh,w
  2871+ 00230C  0FC0               	addlw	low(0C0h)
  2872+ 00230E  0100               	movlb	0	; () banked
  2873+ 002310  0100               	movlb	0	; () banked
  2874+ 002312  6FE1               	movwf	((?_LCD_Inst))&0ffh
  2875+ 002314  EC94  F012         	call	_LCD_Inst	;wreg free
  2876+                          	
  2877+ 002318                     l125:		; BSR set to: ?
  2878+                          
  2879+                          	line	57
  2880+                          ;lcd_portd.c: 57: if (Row == 2) LCD_Inst(0x94 + 
      +                          Col);
  2881+ 002318  0100               	movlb	0	; () banked
  2882+ 00231A  0100               	movlb	0	; () banked
  2883+ 00231C  51DF               	movf	((LCD_Move@Row))&0ffh,w
  2884+ 00231E  0A02               	xorlw	2
  2885+                          
  2886+ 002320  A4D8               	btfss	status,2
  2887+ 002322  D001               	goto	u821
  2888+ 002324  D001               	goto	u820
  2889+ 002326                     u821:
  2890+ 002326  D009               	goto	l126
  2891+ 002328                     u820:
  2892+ 002328  0100               	movlb	0	; () banked
  2893+ 00232A  0100               	movlb	0	; () banked
  2894+ 00232C  51E0               	movf	((LCD_Move@Col))&0ffh,w
  2895+ 00232E  0F94               	addlw	low(094h)
  2896+ 002330  0100               	movlb	0	; () banked
  2897+ 002332  0100               	movlb	0	; () banked
  2898+ 002334  6FE1               	movwf	((?_LCD_Inst))&0ffh
  2899+ 002336  EC94  F012         	call	_LCD_Inst	;wreg free
  2900+                          	
  2901+ 00233A                     l126:		; BSR set to: ?
  2902+                          
  2903+                          	line	58
  2904+                          ;lcd_portd.c: 58: if (Row == 3) LCD_Inst(0xD4 + 
      +                          Col);
  2905+ 00233A  0100               	movlb	0	; () banked
  2906+ 00233C  0100               	movlb	0	; () banked
  2907+ 00233E  51DF               	movf	((LCD_Move@Row))&0ffh,w
  2908+ 002340  0A03               	xorlw	3
  2909+                          
  2910+ 002342  A4D8               	btfss	status,2
  2911+ 002344  D001               	goto	u831
  2912+ 002346  D001               	goto	u830
  2913+ 002348                     u831:
  2914+ 002348  D009               	goto	l127
  2915+ 00234A                     u830:
  2916+ 00234A  0100               	movlb	0	; () banked
  2917+ 00234C  0100               	movlb	0	; () banked
  2918+ 00234E  51E0               	movf	((LCD_Move@Col))&0ffh,w
  2919+ 002350  0FD4               	addlw	low(0D4h)
  2920+ 002352  0100               	movlb	0	; () banked
  2921+ 002354  0100               	movlb	0	; () banked
  2922+ 002356  6FE1               	movwf	((?_LCD_Inst))&0ffh
  2923+ 002358  EC94  F012         	call	_LCD_Inst	;wreg free
  2924+                          	
  2925+ 00235C                     l127:		; BSR set to: ?
  2926+                          
  2927+                          	line	59
  2928+                          ;lcd_portd.c: 59: }
  2929+ 00235C                     l123:
  2930+                          			; BSR set to: ?
  2931+                          
  2932+ 00235C  0012               	return
  2933+                          	opt stack 0
  2934+                          GLOBAL __end_of_LCD_Move
  2935+ 00235E                     	__end_of_LCD_Move:
  2936+                          	FNSIZE	_LCD_Move,0,2
  2937+                          ; =============== function _LCD_Move ends ======
      +                          ======
  2938+                          
  2939+                          	signat	_LCD_Move,8312
  2940+                          	global	___aldiv
  2941+                          	global	??___aldiv
  2942+                          	global	?___aldiv
  2943+                                  psect   text10,class=CODE,space=0,reloc=
      +                          2
  2944+                          
  2945+                          	opt lm
  2946+                          	file	"C:\Program Files (x86)\HI-TECH Software\P
      +                          ICC-18\PRO\9.63\sources\aldiv.c"
  2947+                          	line	5
  2948+ 000000                     	__size_of___aldiv	equ	__end_of___aldiv-___aldiv
  2949+                          	
  2950+ 0018BA                     ___aldiv:		; BSR set to: ?
  2951+                          
  2952+                          	opt stack 29
  2953+                          	line	9
  2954+ 0018BA  0100               	movlb	0	; () banked
  2955+ 0018BC  6FFF               	movwf	(??___aldiv+6+0)&0ffh
  2956+ 0018BE  0E00               	movlw	low(0)
  2957+ 0018C0  0100               	movlb	0	; () banked
  2958+ 0018C2  0100               	movlb	0	; () banked
  2959+ 0018C4  6FFA               	movwf	((___aldiv@sign))&0ffh
  2960+ 0018C6  0100               	movlb	0	; () banked
  2961+ 0018C8  51FF               	movf	(??___aldiv+6+0)&0ffh,w
  2962+                          	line	10
  2963+ 0018CA  0100               	movlb	0	; () banked
  2964+ 0018CC  0100               	movlb	0	; () banked
  2965+ 0018CE  AFF8               	btfss	((___aldiv@divisor+3))&0ffh,7
  2966+ 0018D0  D001               	goto	u1031
  2967+ 0018D2  D001               	goto	u1030
  2968+ 0018D4                     u1031:
  2969+ 0018D4  D018               	goto	l216
  2970+ 0018D6                     u1030:
  2971+                          	line	11
  2972+ 0018D6  0100               	movlb	0	; () banked
  2973+ 0018D8  0100               	movlb	0	; () banked
  2974+ 0018DA  1FF8               	comf	((___aldiv@divisor+3))&0ffh
  2975+ 0018DC  0100               	movlb	0	; () banked
  2976+ 0018DE  1FF7               	comf	((___aldiv@divisor+2))&0ffh
  2977+ 0018E0  0100               	movlb	0	; () banked
  2978+ 0018E2  1FF6               	comf	((___aldiv@divisor+1))&0ffh
  2979+ 0018E4  0100               	movlb	0	; () banked
  2980+ 0018E6  6DF5               	negf	((___aldiv@divisor))&0ffh
  2981+ 0018E8  0E00               	movlw	0
  2982+ 0018EA  0100               	movlb	0	; () banked
  2983+ 0018EC  23F6               	addwfc	((___aldiv@divisor+1))&0ffh
  2984+ 0018EE  0100               	movlb	0	; () banked
  2985+ 0018F0  23F7               	addwfc	((___aldiv@divisor+2))&0ffh
  2986+ 0018F2  0100               	movlb	0	; () banked
  2987+ 0018F4  23F8               	addwfc	((___aldiv@divisor+3))&0ffh
  2988+                          	line	12
  2989+ 0018F6  0100               	movlb	0	; () banked
  2990+ 0018F8  6FFF               	movwf	(??___aldiv+6+0)&0ffh
  2991+ 0018FA  0E01               	movlw	low(01h)
  2992+ 0018FC  0100               	movlb	0	; () banked
  2993+ 0018FE  0100               	movlb	0	; () banked
  2994+ 001900  6FFA               	movwf	((___aldiv@sign))&0ffh
  2995+ 001902  0100               	movlb	0	; () banked
  2996+ 001904  51FF               	movf	(??___aldiv+6+0)&0ffh,w
  2997+                          	line	13
  2998+                          	
  2999+ 001906                     l216:		; BSR set to: ?
  3000+                          
  3001+                          	line	14
  3002+ 001906  0100               	movlb	0	; () banked
  3003+ 001908  0100               	movlb	0	; () banked
  3004+ 00190A  AFF4               	btfss	((___aldiv@dividend+3))&0ffh,7
  3005+ 00190C  D001               	goto	u1041
  3006+ 00190E  D001               	goto	u1040
  3007+ 001910                     u1041:
  3008+ 001910  D014               	goto	l217
  3009+ 001912                     u1040:
  3010+                          	line	15
  3011+ 001912  0100               	movlb	0	; () banked
  3012+ 001914  0100               	movlb	0	; () banked
  3013+ 001916  1FF4               	comf	((___aldiv@dividend+3))&0ffh
  3014+ 001918  0100               	movlb	0	; () banked
  3015+ 00191A  1FF3               	comf	((___aldiv@dividend+2))&0ffh
  3016+ 00191C  0100               	movlb	0	; () banked
  3017+ 00191E  1FF2               	comf	((___aldiv@dividend+1))&0ffh
  3018+ 001920  0100               	movlb	0	; () banked
  3019+ 001922  6DF1               	negf	((___aldiv@dividend))&0ffh
  3020+ 001924  0E00               	movlw	0
  3021+ 001926  0100               	movlb	0	; () banked
  3022+ 001928  23F2               	addwfc	((___aldiv@dividend+1))&0ffh
  3023+ 00192A  0100               	movlb	0	; () banked
  3024+ 00192C  23F3               	addwfc	((___aldiv@dividend+2))&0ffh
  3025+ 00192E  0100               	movlb	0	; () banked
  3026+ 001930  23F4               	addwfc	((___aldiv@dividend+3))&0ffh
  3027+                          	line	16
  3028+ 001932  0E01               	movlw	(01h)&0ffh
  3029+ 001934  0100               	movlb	0	; () banked
  3030+ 001936  0100               	movlb	0	; () banked
  3031+ 001938  1BFA               	xorwf	((___aldiv@sign))&0ffh
  3032+                          	line	17
  3033+                          	
  3034+ 00193A                     l217:		; BSR set to: ?
  3035+                          
  3036+                          	line	18
  3037+ 00193A  0E00               	movlw	low(0)
  3038+ 00193C  0100               	movlb	0	; () banked
  3039+ 00193E  0100               	movlb	0	; () banked
  3040+ 001940  6FFB               	movwf	((___aldiv@quotient))&0ffh
  3041+ 001942  0E00               	movlw	high(0)
  3042+ 001944  0100               	movlb	0	; () banked
  3043+ 001946  6FFC               	movwf	((___aldiv@quotient+1))&0ffh
  3044+ 001948  0E00               	movlw	low highword(0)
  3045+ 00194A  0100               	movlb	0	; () banked
  3046+ 00194C  6FFD               	movwf	((___aldiv@quotient+2))&0ffh
  3047+ 00194E  0E00               	movlw	high highword(0)
  3048+ 001950  0100               	movlb	0	; () banked
  3049+ 001952  6FFE               	movwf	((___aldiv@quotient+3))&0ffh
  3050+                          	line	19
  3051+ 001954  0100               	movlb	0	; () banked
  3052+ 001956  51F8               	movf	((___aldiv@divisor+3))&0ffh,w
  3053+ 001958  11F5               	iorwf ((___aldiv@divisor))&0ffh,w
  3054+ 00195A  11F6               	iorwf ((___aldiv@divisor+1))&0ffh,w
  3055+ 00195C  11F7               	iorwf ((___aldiv@divisor+2))&0ffh,w
  3056+                          
  3057+ 00195E  B4D8               	btfsc	status,2
  3058+ 001960  D001               	goto	u1051
  3059+ 001962  D001               	goto	u1050
  3060+ 001964                     u1051:
  3061+ 001964  D06B               	goto	l218
  3062+ 001966                     u1050:
  3063+                          	line	20
  3064+ 001966  0100               	movlb	0	; () banked
  3065+ 001968  6FFF               	movwf	(??___aldiv+6+0)&0ffh
  3066+ 00196A  0E01               	movlw	low(01h)
  3067+ 00196C  0100               	movlb	0	; () banked
  3068+ 00196E  0100               	movlb	0	; () banked
  3069+ 001970  6FF9               	movwf	((___aldiv@counter))&0ffh
  3070+ 001972  0100               	movlb	0	; () banked
  3071+ 001974  51FF               	movf	(??___aldiv+6+0)&0ffh,w
  3072+                          	line	21
  3073+ 001976  D00D               	goto	l219
  3074+                          	
  3075+ 001978                     l220:		; BSR set to: ?
  3076+                          
  3077+                          	line	22
  3078+ 001978  0100               	movlb	0	; () banked
  3079+ 00197A  90D8               	bcf	status,0
  3080+ 00197C  0100               	movlb	0	; () banked
  3081+ 00197E  37F5               	rlcf	((___aldiv@divisor))&0ffh
  3082+ 001980  0100               	movlb	0	; () banked
  3083+ 001982  37F6               	rlcf	((___aldiv@divisor+1))&0ffh
  3084+ 001984  0100               	movlb	0	; () banked
  3085+ 001986  37F7               	rlcf	((___aldiv@divisor+2))&0ffh
  3086+ 001988  0100               	movlb	0	; () banked
  3087+ 00198A  37F8               	rlcf	((___aldiv@divisor+3))&0ffh
  3088+                          	line	23
  3089+ 00198C  0100               	movlb	0	; () banked
  3090+ 00198E  0100               	movlb	0	; () banked
  3091+ 001990  2BF9               	incf	((___aldiv@counter))&0ffh
  3092+                          	line	24
  3093+                          	
  3094+ 001992                     l219:		; BSR set to: ?
  3095+                          
  3096+                          	line	21
  3097+ 001992  0100               	movlb	0	; () banked
  3098+                          	
  3099+ 001994  0100               	movlb	0	; () banked
  3100+ 001996  AFF8               	btfss	((___aldiv@divisor+3))&0ffh,(31)&7
  3101+ 001998  D001               	goto	u1061
  3102+ 00199A  D001               	goto	u1060
  3103+ 00199C                     u1061:
  3104+ 00199C  D7ED               	goto	l220
  3105+ 00199E                     u1060:
  3106+                          	
  3107+ 00199E                     l221:		; BSR set to: ?
  3108+                          
  3109+                          	line	25
  3110+                          	
  3111+ 00199E                     l224:		; BSR set to: ?
  3112+                          
  3113+                          	line	26
  3114+ 00199E  0100               	movlb	0	; () banked
  3115+ 0019A0  90D8               	bcf	status,0
  3116+ 0019A2  0100               	movlb	0	; () banked
  3117+ 0019A4  37FB               	rlcf	((___aldiv@quotient))&0ffh
  3118+ 0019A6  0100               	movlb	0	; () banked
  3119+ 0019A8  37FC               	rlcf	((___aldiv@quotient+1))&0ffh
  3120+ 0019AA  0100               	movlb	0	; () banked
  3121+ 0019AC  37FD               	rlcf	((___aldiv@quotient+2))&0ffh
  3122+ 0019AE  0100               	movlb	0	; () banked
  3123+ 0019B0  37FE               	rlcf	((___aldiv@quotient+3))&0ffh
  3124+                          	line	27
  3125+ 0019B2  0100               	movlb	0	; () banked
  3126+ 0019B4  0100               	movlb	0	; () banked
  3127+ 0019B6  51F5               	movf	((___aldiv@divisor))&0ffh,w
  3128+ 0019B8  0100               	movlb	0	; () banked
  3129+ 0019BA  0100               	movlb	0	; () banked
  3130+ 0019BC  5DF1               	subwf	((___aldiv@dividend))&0ffh,w
  3131+ 0019BE  0100               	movlb	0	; () banked
  3132+ 0019C0  0100               	movlb	0	; () banked
  3133+ 0019C2  51F6               	movf	((___aldiv@divisor+1))&0ffh,w
  3134+ 0019C4  0100               	movlb	0	; () banked
  3135+ 0019C6  0100               	movlb	0	; () banked
  3136+ 0019C8  59F2               	subwfb	((___aldiv@dividend+1))&0ffh,w
  3137+ 0019CA  0100               	movlb	0	; () banked
  3138+ 0019CC  0100               	movlb	0	; () banked
  3139+ 0019CE  51F7               	movf	((___aldiv@divisor+2))&0ffh,w
  3140+ 0019D0  0100               	movlb	0	; () banked
  3141+ 0019D2  0100               	movlb	0	; () banked
  3142+ 0019D4  59F3               	subwfb	((___aldiv@dividend+2))&0ffh,w
  3143+ 0019D6  0100               	movlb	0	; () banked
  3144+ 0019D8  0100               	movlb	0	; () banked
  3145+ 0019DA  51F8               	movf	((___aldiv@divisor+3))&0ffh,w
  3146+ 0019DC  0100               	movlb	0	; () banked
  3147+ 0019DE  0100               	movlb	0	; () banked
  3148+ 0019E0  59F4               	subwfb	((___aldiv@dividend+3))&0ffh,w
  3149+ 0019E2  A0D8               	btfss	status,0
  3150+ 0019E4  D001               	goto	u1071
  3151+ 0019E6  D001               	goto	u1070
  3152+ 0019E8                     u1071:
  3153+ 0019E8  D01B               	goto	l225
  3154+ 0019EA                     u1070:
  3155+                          	line	28
  3156+ 0019EA  0100               	movlb	0	; () banked
  3157+ 0019EC  0100               	movlb	0	; () banked
  3158+ 0019EE  51F5               	movf	((___aldiv@divisor))&0ffh,w
  3159+ 0019F0  0100               	movlb	0	; () banked
  3160+ 0019F2  0100               	movlb	0	; () banked
  3161+ 0019F4  5FF1               	subwf	((___aldiv@dividend))&0ffh
  3162+ 0019F6  0100               	movlb	0	; () banked
  3163+ 0019F8  0100               	movlb	0	; () banked
  3164+ 0019FA  51F6               	movf	((___aldiv@divisor+1))&0ffh,w
  3165+ 0019FC  0100               	movlb	0	; () banked
  3166+ 0019FE  0100               	movlb	0	; () banked
  3167+ 001A00  5BF2               	subwfb	((___aldiv@dividend+1))&0ffh
  3168+ 001A02  0100               	movlb	0	; () banked
  3169+ 001A04  0100               	movlb	0	; () banked
  3170+ 001A06  51F7               	movf	((___aldiv@divisor+2))&0ffh,w
  3171+ 001A08  0100               	movlb	0	; () banked
  3172+ 001A0A  0100               	movlb	0	; () banked
  3173+ 001A0C  5BF3               	subwfb	((___aldiv@dividend+2))&0ffh
  3174+ 001A0E  0100               	movlb	0	; () banked
  3175+ 001A10  0100               	movlb	0	; () banked
  3176+ 001A12  51F8               	movf	((___aldiv@divisor+3))&0ffh,w
  3177+ 001A14  0100               	movlb	0	; () banked
  3178+ 001A16  0100               	movlb	0	; () banked
  3179+ 001A18  5BF4               	subwfb	((___aldiv@dividend+3))&0ffh
  3180+                          	line	29
  3181+ 001A1A  0100               	movlb	0	; () banked
  3182+ 001A1C  0100               	movlb	0	; () banked
  3183+ 001A1E  81FB               	bsf	(0+(0/8)+(___aldiv@quotient))&0ffh,(0)&7
  3184+                          	line	30
  3185+                          	
  3186+ 001A20                     l225:		; BSR set to: ?
  3187+                          
  3188+                          	line	31
  3189+ 001A20  0100               	movlb	0	; () banked
  3190  001A22  90D8               	bcf	status,0
  3191  001A24  0100               	movlb	0	; () banked
  3192  001A26  33F8               	rrcf	((___aldiv@divisor+3))&0ffh
  3193  001A28  0100               	movlb	0	; () banked
  3194  001A2A  33F7               	rrcf	((___aldiv@divisor+2))&0ffh
  3195  001A2C  0100               	movlb	0	; () banked
  3196  001A2E  33F6               	rrcf	((___aldiv@divisor+1))&0ffh
  3197  001A30  0100               	movlb	0	; () banked
  3198  001A32  33F5               	rrcf	((___aldiv@divisor))&0ffh
  3199                           	line	32
  3200  001A34  0100               	movlb	0	; () banked
  3201  001A36  0100               	movlb	0	; () banked
  3202  001A38  2FF9               	decfsz	((___aldiv@counter))&0ffh
  3203                           	
  3204  001A3A  D7B1               	goto	l224
  3205                           	
  3206  001A3C                     l223:		; BSR set to: ?
  3207                           
  3208                           	line	33
  3209                           	
  3210  001A3C                     l218:		; BSR set to: ?
  3211                           
  3212                           	line	34
  3213  001A3C  0100               	movlb	0	; () banked
  3214  001A3E  0100               	movlb	0	; () banked
  3215  001A40  51FA               	movf	((___aldiv@sign))&0ffh,w
  3216  001A42  B4D8               	btfsc	status,2
  3217  001A44  D001               	goto	u1081
  3218  001A46  D001               	goto	u1080
  3219  001A48                     u1081:
  3220  001A48  D010               	goto	l226
  3221  001A4A                     u1080:
  3222                           	line	35
  3223  001A4A  0100               	movlb	0	; () banked
  3224  001A4C  0100               	movlb	0	; () banked
  3225  001A4E  1FFE               	comf	((___aldiv@quotient+3))&0ffh
  3226  001A50  0100               	movlb	0	; () banked
  3227  001A52  1FFD               	comf	((___aldiv@quotient+2))&0ffh
  3228  001A54  0100               	movlb	0	; () banked
  3229  001A56  1FFC               	comf	((___aldiv@quotient+1))&0ffh
  3230  001A58  0100               	movlb	0	; () banked
  3231  001A5A  6DFB               	negf	((___aldiv@quotient))&0ffh
  3232  001A5C  0E00               	movlw	0
  3233  001A5E  0100               	movlb	0	; () banked
  3234  001A60  23FC               	addwfc	((___aldiv@quotient+1))&0ffh
  3235  001A62  0100               	movlb	0	; () banked
  3236  001A64  23FD               	addwfc	((___aldiv@quotient+2))&0ffh
  3237  001A66  0100               	movlb	0	; () banked
  3238  001A68  23FE               	addwfc	((___aldiv@quotient+3))&0ffh
  3239                           	
  3240  001A6A                     l226:		; BSR set to: ?
  3241                           
  3242                           	line	36
  3243  001A6A  C0FB  F0F1         	movff	(___aldiv@quotient),(?___aldiv)
  3244  001A6E  C0FC  F0F2         	movff	(___aldiv@quotient+1),(?___aldiv+1)
  3245  001A72  C0FD  F0F3         	movff	(___aldiv@quotient+2),(?___aldiv+2)
  3246  001A76  C0FE  F0F4         	movff	(___aldiv@quotient+3),(?___aldiv+3)
  3247  001A7A  D000               	goto	l215
  3248                           	line	37
  3249  001A7C                     l215:
  3250                           			; BSR set to: ?
  3251                           
  3252  001A7C  0012               	return
  3253                           	opt stack 0
  3254                           GLOBAL __end_of___aldiv
  3255  001A7E                     	__end_of___aldiv:
  3256                           	FNSIZE	___aldiv,7,8
  3257                           ; =============== function ___aldiv ends =======
                                 =====
  3258                           
  3259                           	signat	___aldiv,8316
  3260                           	global	_LCD_Inst
  3261                           	global	??_LCD_Inst
  3262                           	global	?_LCD_Inst
  3263                                   psect   text11,class=CODE,space=0,reloc=
                                 2
  3264                           
  3265                           	opt lm
  3266                           	file	"A:\OneDrive\School\College\Junior\Fa23\Em
                                 b Sys\c\hw5\stepper\lcd_portd.c"
  3267                           	line	44
  3268  000000                     	__size_of_LCD_Inst	equ	__end_of_LCD_Inst-_LCD_I
                                 nst
  3269                           ;lcd_portd.c: 43: void LCD_Inst(unsigned char c)
  3270                           ;lcd_portd.c: 44: {
  3271                           	
  3272  002528                     _LCD_Inst:		; BSR set to: ?
  3273                           
  3274                           	opt stack 29
  3275                           	line	45
  3276  002528  9483               	bcf	c:(31770/8),(31770)&7	;volatile
  3277                           	line	46
  3278                           ;lcd_portd.c: 46: PORTD = (PORTD & 0x0F) | (c & 
                                 0xF0);
  3279  00252A  C0E1  F0E2         	movff	(LCD_Inst@c),??_LCD_Inst+0+0
  3280  00252E  0EF0               	movlw	0F0h
  3281  002530  0100               	movlb	0	; () banked
  3282  002532  17E2               	andwf	(??_LCD_Inst+0+0)&0ffh
  3283  002534  5083               	movf	((c:3971)),c,w	;volatile
  3284  002536  0B0F               	andlw	low(0Fh)
  3285  002538  0100               	movlb	0	; () banked
  3286  00253A  11E2               	iorwf	(??_LCD_Inst+0+0)&0ffh,w
  3287  00253C  6E83               	movwf	((c:3971)),c	;volatile
  3288                           	line	47
  3289                           ;lcd_portd.c: 47: LCD_Strobe();
  3290  00253E  ECF4  F012         	call	_LCD_Strobe	;wreg free
  3291                           	line	48
  3292                           ;lcd_portd.c: 48: PORTD = (PORTD & 0x0F) | ((c<<
                                 4) & 0xF0);
  3293  002542  C0E1  F0E2         	movff	(LCD_Inst@c),??_LCD_Inst+0+0
  3294  002546  0100               	movlb	0	; () banked
  3295  002548  3BE2               	swapf	(??_LCD_Inst+0+0)&0ffh
  3296  00254A  0EF0               	movlw	(0ffh shl 4) & 0ffh
  3297  00254C  17E2               	andwf	(??_LCD_Inst+0+0)&0ffh
  3298  00254E  0EF0               	movlw	0F0h
  3299  002550  0100               	movlb	0	; () banked
  3300  002552  17E2               	andwf	(??_LCD_Inst+0+0)&0ffh
  3301  002554  5083               	movf	((c:3971)),c,w	;volatile
  3302  002556  0B0F               	andlw	low(0Fh)
  3303  002558  0100               	movlb	0	; () banked
  3304  00255A  11E2               	iorwf	(??_LCD_Inst+0+0)&0ffh,w
  3305  00255C  6E83               	movwf	((c:3971)),c	;volatile
  3306                           	line	49
  3307                           ;lcd_portd.c: 49: LCD_Strobe();
  3308  00255E  ECF4  F012         	call	_LCD_Strobe	;wreg free
  3309                           	line	50
  3310                           ;lcd_portd.c: 50: Wait_ms(10);
  3311  002562  0E0A               	movlw	low(0Ah)
  3312  002564  0100               	movlb	0	; () banked
  3313  002566  0100               	movlb	0	; () banked
  3314  002568  6FE3               	movwf	((?_Wait_ms))&0ffh
  3315  00256A  0E00               	movlw	high(0Ah)
  3316  00256C  0100               	movlb	0	; () banked
  3317  00256E  6FE4               	movwf	((?_Wait_ms+1))&0ffh
  3318  002570  ECAF  F011         	call	_Wait_ms	;wreg free
  3319                           	line	51
  3320                           ;lcd_portd.c: 51: }
  3321  002574                     l122:
  3322                           			; BSR set to: ?
  3323                           
  3324  002574  0012               	return
  3325                           	opt stack 0
  3326                           GLOBAL __end_of_LCD_Inst
  3327  002576                     	__end_of_LCD_Inst:
  3328                           	FNSIZE	_LCD_Inst,1,1
  3329                           ; =============== function _LCD_Inst ends ======
                                 ======
  3330                           
  3331                           	signat	_LCD_Inst,4216
  3332                           	global	___almod
  3333                           	global	??___almod
  3334                           	global	?___almod
  3335                                   psect   text12,class=CODE,space=0,reloc=
                                 2
  3336                           
  3337                           	opt lm
  3338                           	file	"C:\Program Files (x86)\HI-TECH Software\P
                                 ICC-18\PRO\9.63\sources\almod.c"
  3339                           	line	5
  3340  000000                     	__size_of___almod	equ	__end_of___almod-___almod
  3341                           	
  3342  001D94                     ___almod:		; BSR set to: ?
  3343                           
  3344                           	opt stack 29
  3345                           	line	8
  3346  001D94  0100               	movlb	0	; () banked
  3347  001D96  6FFB               	movwf	(??___almod+2+0)&0ffh
  3348  001D98  0E00               	movlw	low(0)
  3349  001D9A  0100               	movlb	0	; () banked
  3350  001D9C  0100               	movlb	0	; () banked
  3351  001D9E  6FF9               	movwf	((___almod@sign))&0ffh
  3352  001DA0  0100               	movlb	0	; () banked
  3353  001DA2  51FB               	movf	(??___almod+2+0)&0ffh,w
  3354                           	line	9
  3355  001DA4  0100               	movlb	0	; () banked
  3356  001DA6  0100               	movlb	0	; () banked
  3357  001DA8  AFF4               	btfss	((___almod@dividend+3))&0ffh,7
  3358  001DAA  D001               	goto	u1091
  3359  001DAC  D001               	goto	u1090
  3360  001DAE                     u1091:
  3361  001DAE  D018               	goto	l228
  3362  001DB0                     u1090:
  3363                           	line	10
  3364  001DB0  0100               	movlb	0	; () banked
  3365  001DB2  0100               	movlb	0	; () banked
  3366  001DB4  1FF4               	comf	((___almod@dividend+3))&0ffh
  3367  001DB6  0100               	movlb	0	; () banked
  3368  001DB8  1FF3               	comf	((___almod@dividend+2))&0ffh
  3369  001DBA  0100               	movlb	0	; () banked
  3370  001DBC  1FF2               	comf	((___almod@dividend+1))&0ffh
  3371  001DBE  0100               	movlb	0	; () banked
  3372  001DC0  6DF1               	negf	((___almod@dividend))&0ffh
  3373  001DC2  0E00               	movlw	0
  3374  001DC4  0100               	movlb	0	; () banked
  3375  001DC6  23F2               	addwfc	((___almod@dividend+1))&0ffh
  3376  001DC8  0100               	movlb	0	; () banked
  3377  001DCA  23F3               	addwfc	((___almod@dividend+2))&0ffh
  3378  001DCC  0100               	movlb	0	; () banked
  3379  001DCE  23F4               	addwfc	((___almod@dividend+3))&0ffh
  3380                           	line	11
  3381  001DD0  0100               	movlb	0	; () banked
  3382  001DD2  6FFB               	movwf	(??___almod+2+0)&0ffh
  3383  001DD4  0E01               	movlw	low(01h)
  3384  001DD6  0100               	movlb	0	; () banked
  3385  001DD8  0100               	movlb	0	; () banked
  3386  001DDA  6FF9               	movwf	((___almod@sign))&0ffh
  3387  001DDC  0100               	movlb	0	; () banked
  3388  001DDE  51FB               	movf	(??___almod+2+0)&0ffh,w
  3389                           	line	12
  3390                           	
  3391  001DE0                     l228:		; BSR set to: ?
  3392                           
  3393                           	line	13
  3394  001DE0  0100               	movlb	0	; () banked
  3395  001DE2  0100               	movlb	0	; () banked
  3396  001DE4  AFF8               	btfss	((___almod@divisor+3))&0ffh,7
  3397  001DE6  D001               	goto	u1101
  3398  001DE8  D001               	goto	u1100
  3399  001DEA                     u1101:
  3400  001DEA  D010               	goto	l229
  3401  001DEC                     u1100:
  3402                           	line	14
  3403  001DEC  0100               	movlb	0	; () banked
  3404  001DEE  0100               	movlb	0	; () banked
  3405  001DF0  1FF8               	comf	((___almod@divisor+3))&0ffh
  3406  001DF2  0100               	movlb	0	; () banked
  3407  001DF4  1FF7               	comf	((___almod@divisor+2))&0ffh
  3408  001DF6  0100               	movlb	0	; () banked
  3409  001DF8  1FF6               	comf	((___almod@divisor+1))&0ffh
  3410  001DFA  0100               	movlb	0	; () banked
  3411  001DFC  6DF5               	negf	((___almod@divisor))&0ffh
  3412  001DFE  0E00               	movlw	0
  3413  001E00  0100               	movlb	0	; () banked
  3414  001E02  23F6               	addwfc	((___almod@divisor+1))&0ffh
  3415  001E04  0100               	movlb	0	; () banked
  3416  001E06  23F7               	addwfc	((___almod@divisor+2))&0ffh
  3417  001E08  0100               	movlb	0	; () banked
  3418  001E0A  23F8               	addwfc	((___almod@divisor+3))&0ffh
  3419                           	
  3420  001E0C                     l229:		; BSR set to: ?
  3421                           
  3422                           	line	15
  3423  001E0C  0100               	movlb	0	; () banked
  3424  001E0E  51F8               	movf	((___almod@divisor+3))&0ffh,w
  3425  001E10  11F5               	iorwf ((___almod@divisor))&0ffh,w
  3426  001E12  11F6               	iorwf ((___almod@divisor+1))&0ffh,w
  3427  001E14  11F7               	iorwf ((___almod@divisor+2))&0ffh,w
  3428                           
  3429  001E16  B4D8               	btfsc	status,2
  3430  001E18  D001               	goto	u1111
  3431  001E1A  D001               	goto	u1110
  3432  001E1C                     u1111:
  3433  001E1C  D05E               	goto	l230
  3434  001E1E                     u1110:
  3435                           	line	16
  3436  001E1E  0100               	movlb	0	; () banked
  3437  001E20  6FFB               	movwf	(??___almod+2+0)&0ffh
  3438  001E22  0E01               	movlw	low(01h)
  3439  001E24  0100               	movlb	0	; () banked
  3440  001E26  0100               	movlb	0	; () banked
  3441  001E28  6FFA               	movwf	((___almod@counter))&0ffh
  3442  001E2A  0100               	movlb	0	; () banked
  3443  001E2C  51FB               	movf	(??___almod+2+0)&0ffh,w
  3444                           	line	17
  3445  001E2E  D00D               	goto	l231
  3446                           	
  3447  001E30                     l232:		; BSR set to: ?
  3448                           
  3449                           	line	18
  3450  001E30  0100               	movlb	0	; () banked
  3451  001E32  90D8               	bcf	status,0
  3452  001E34  0100               	movlb	0	; () banked
  3453  001E36  37F5               	rlcf	((___almod@divisor))&0ffh
  3454  001E38  0100               	movlb	0	; () banked
  3455  001E3A  37F6               	rlcf	((___almod@divisor+1))&0ffh
  3456  001E3C  0100               	movlb	0	; () banked
  3457  001E3E  37F7               	rlcf	((___almod@divisor+2))&0ffh
  3458  001E40  0100               	movlb	0	; () banked
  3459  001E42  37F8               	rlcf	((___almod@divisor+3))&0ffh
  3460                           	line	19
  3461  001E44  0100               	movlb	0	; () banked
  3462  001E46  0100               	movlb	0	; () banked
  3463  001E48  2BFA               	incf	((___almod@counter))&0ffh
  3464                           	line	20
  3465                           	
  3466  001E4A                     l231:		; BSR set to: ?
  3467                           
  3468                           	line	17
  3469  001E4A  0100               	movlb	0	; () banked
  3470                           	
  3471  001E4C  0100               	movlb	0	; () banked
  3472  001E4E  AFF8               	btfss	((___almod@divisor+3))&0ffh,(31)&7
  3473  001E50  D001               	goto	u1121
  3474  001E52  D001               	goto	u1120
  3475  001E54                     u1121:
  3476  001E54  D7ED               	goto	l232
  3477  001E56                     u1120:
  3478                           	
  3479  001E56                     l233:		; BSR set to: ?
  3480                           
  3481                           	line	21
  3482                           	
  3483  001E56                     l236:		; BSR set to: ?
  3484                           
  3485                           	line	22
  3486  001E56  0100               	movlb	0	; () banked
  3487  001E58  0100               	movlb	0	; () banked
  3488  001E5A  51F5               	movf	((___almod@divisor))&0ffh,w
  3489  001E5C  0100               	movlb	0	; () banked
  3490  001E5E  0100               	movlb	0	; () banked
  3491  001E60  5DF1               	subwf	((___almod@dividend))&0ffh,w
  3492  001E62  0100               	movlb	0	; () banked
  3493  001E64  0100               	movlb	0	; () banked
  3494  001E66  51F6               	movf	((___almod@divisor+1))&0ffh,w
  3495  001E68  0100               	movlb	0	; () banked
  3496  001E6A  0100               	movlb	0	; () banked
  3497  001E6C  59F2               	subwfb	((___almod@dividend+1))&0ffh,w
  3498  001E6E  0100               	movlb	0	; () banked
  3499  001E70  0100               	movlb	0	; () banked
  3500  001E72  51F7               	movf	((___almod@divisor+2))&0ffh,w
  3501  001E74  0100               	movlb	0	; () banked
  3502  001E76  0100               	movlb	0	; () banked
  3503  001E78  59F3               	subwfb	((___almod@dividend+2))&0ffh,w
  3504  001E7A  0100               	movlb	0	; () banked
  3505  001E7C  0100               	movlb	0	; () banked
  3506  001E7E  51F8               	movf	((___almod@divisor+3))&0ffh,w
  3507  001E80  0100               	movlb	0	; () banked
  3508  001E82  0100               	movlb	0	; () banked
  3509  001E84  59F4               	subwfb	((___almod@dividend+3))&0ffh,w
  3510  001E86  A0D8               	btfss	status,0
  3511  001E88  D001               	goto	u1131
  3512  001E8A  D001               	goto	u1130
  3513  001E8C                     u1131:
  3514  001E8C  D018               	goto	l237
  3515  001E8E                     u1130:
  3516                           	line	23
  3517  001E8E  0100               	movlb	0	; () banked
  3518  001E90  0100               	movlb	0	; () banked
  3519  001E92  51F5               	movf	((___almod@divisor))&0ffh,w
  3520  001E94  0100               	movlb	0	; () banked
  3521  001E96  0100               	movlb	0	; () banked
  3522  001E98  5FF1               	subwf	((___almod@dividend))&0ffh
  3523  001E9A  0100               	movlb	0	; () banked
  3524  001E9C  0100               	movlb	0	; () banked
  3525  001E9E  51F6               	movf	((___almod@divisor+1))&0ffh,w
  3526  001EA0  0100               	movlb	0	; () banked
  3527  001EA2  0100               	movlb	0	; () banked
  3528  001EA4  5BF2               	subwfb	((___almod@dividend+1))&0ffh
  3529  001EA6  0100               	movlb	0	; () banked
  3530  001EA8  0100               	movlb	0	; () banked
  3531  001EAA  51F7               	movf	((___almod@divisor+2))&0ffh,w
  3532  001EAC  0100               	movlb	0	; () banked
  3533  001EAE  0100               	movlb	0	; () banked
  3534  001EB0  5BF3               	subwfb	((___almod@dividend+2))&0ffh
  3535  001EB2  0100               	movlb	0	; () banked
  3536  001EB4  0100               	movlb	0	; () banked
  3537  001EB6  51F8               	movf	((___almod@divisor+3))&0ffh,w
  3538  001EB8  0100               	movlb	0	; () banked
  3539  001EBA  0100               	movlb	0	; () banked
  3540  001EBC  5BF4               	subwfb	((___almod@dividend+3))&0ffh
  3541                           	
  3542  001EBE                     l237:		; BSR set to: ?
  3543                           
  3544                           	line	24
  3545  001EBE  0100               	movlb	0	; () banked
  3546  001EC0  90D8               	bcf	status,0
  3547  001EC2  0100               	movlb	0	; () banked
  3548  001EC4  33F8               	rrcf	((___almod@divisor+3))&0ffh
  3549  001EC6  0100               	movlb	0	; () banked
  3550  001EC8  33F7               	rrcf	((___almod@divisor+2))&0ffh
  3551  001ECA  0100               	movlb	0	; () banked
  3552  001ECC  33F6               	rrcf	((___almod@divisor+1))&0ffh
  3553  001ECE  0100               	movlb	0	; () banked
  3554  001ED0  33F5               	rrcf	((___almod@divisor))&0ffh
  3555                           	line	25
  3556  001ED2  0100               	movlb	0	; () banked
  3557  001ED4  0100               	movlb	0	; () banked
  3558  001ED6  2FFA               	decfsz	((___almod@counter))&0ffh
  3559                           	
  3560  001ED8  D7BE               	goto	l236
  3561                           	
  3562  001EDA                     l235:		; BSR set to: ?
  3563                           
  3564                           	line	26
  3565                           	
  3566  001EDA                     l230:		; BSR set to: ?
  3567                           
  3568                           	line	27
  3569  001EDA  0100               	movlb	0	; () banked
  3570  001EDC  0100               	movlb	0	; () banked
  3571  001EDE  51F9               	movf	((___almod@sign))&0ffh,w
  3572  001EE0  B4D8               	btfsc	status,2
  3573  001EE2  D001               	goto	u1141
  3574  001EE4  D001               	goto	u1140
  3575  001EE6                     u1141:
  3576  001EE6  D010               	goto	l238
  3577  001EE8                     u1140:
  3578                           	line	28
  3579  001EE8  0100               	movlb	0	; () banked
  3580  001EEA  0100               	movlb	0	; () banked
  3581  001EEC  1FF4               	comf	((___almod@dividend+3))&0ffh
  3582  001EEE  0100               	movlb	0	; () banked
  3583  001EF0  1FF3               	comf	((___almod@dividend+2))&0ffh
  3584  001EF2  0100               	movlb	0	; () banked
  3585  001EF4  1FF2               	comf	((___almod@dividend+1))&0ffh
  3586  001EF6  0100               	movlb	0	; () banked
  3587  001EF8  6DF1               	negf	((___almod@dividend))&0ffh
  3588  001EFA  0E00               	movlw	0
  3589  001EFC  0100               	movlb	0	; () banked
  3590  001EFE  23F2               	addwfc	((___almod@dividend+1))&0ffh
  3591  001F00  0100               	movlb	0	; () banked
  3592  001F02  23F3               	addwfc	((___almod@dividend+2))&0ffh
  3593  001F04  0100               	movlb	0	; () banked
  3594  001F06  23F4               	addwfc	((___almod@dividend+3))&0ffh
  3595                           	
  3596  001F08                     l238:		; BSR set to: ?
  3597                           
  3598                           	line	29
  3599  001F08  C0F1  F0F1         	movff	(___almod@dividend),(?___almod)
  3600  001F0C  C0F2  F0F2         	movff	(___almod@dividend+1),(?___almod+1)
  3601  001F10  C0F3  F0F3         	movff	(___almod@dividend+2),(?___almod+2)
  3602  001F14  C0F4  F0F4         	movff	(___almod@dividend+3),(?___almod+3)
  3603  001F18  D000               	goto	l227
  3604                           	line	30
  3605  001F1A                     l227:
  3606                           			; BSR set to: ?
  3607                           
  3608  001F1A  0012               	return
  3609                           	opt stack 0
  3610                           GLOBAL __end_of___almod
  3611  001F1C                     	__end_of___almod:
  3612                           	FNSIZE	___almod,3,8
  3613                           ; =============== function ___almod ends =======
                                 =====
  3614                           
  3615                           	signat	___almod,8316
  3616                           	global	___ftpack
  3617                           	global	??___ftpack
  3618                           	global	?___ftpack
  3619                                   psect   text13,class=CODE,space=0,reloc=
                                 2
  3620                           
  3621                           	opt lm
  3622                           	file	"C:\Program Files (x86)\HI-TECH Software\P
                                 ICC-18\PRO\9.63\sources\float.c"
  3623                           	line	33
  3624  000000                     	__size_of___ftpack	equ	__end_of___ftpack-___ftp
                                 ack
  3625                           	
  3626  002060                     ___ftpack:		; BSR set to: ?
  3627                           
  3628                           	opt stack 29
  3629                           	line	34
  3630  002060  0100               	movlb	0	; () banked
  3631  002062  0100               	movlb	0	; () banked
  3632  002064  51EF               	movf	((___ftpack@exp))&0ffh,w
  3633  002066  B4D8               	btfsc	status,2
  3634  002068  D001               	goto	u1481
  3635  00206A  D001               	goto	u1480
  3636  00206C                     u1481:
  3637  00206C  D00B               	goto	l600000204
  3638  00206E                     u1480:
  3639  00206E  C0ED  FFE9         	movff	(___ftpack@arg),fsr0l
  3640  002072  C0EE  FFEA         	movff	(___ftpack@arg+1),fsr0h
  3641  002076  50EE               	movf	postinc0,w
  3642  002078  10EE               	iorwf	postinc0,w
  3643  00207A  10ED               	iorwf	postdec0,w
  3644  00207C  A4D8               	btfss	status,2
  3645  00207E  D001               	goto	u1491
  3646  002080  D001               	goto	u1490
  3647  002082                     u1491:
  3648  002082  D00C               	goto	l360
  3649  002084                     u1490:
  3650                           	
  3651  002084                     l600000204:		; BSR set to: ?
  3652                           
  3653                           	line	35
  3654  002084  C0ED  FFE9         	movff	(___ftpack@arg),fsr0l
  3655  002088  C0EE  FFEA         	movff	(___ftpack@arg+1),fsr0h
  3656  00208C  0E00               	movlw	low(0)
  3657  00208E  6EEE               	movwf	postinc0
  3658  002090  0E00               	movlw	high(0)
  3659  002092  6EEE               	movwf	postinc0
  3660  002094  0E00               	movlw	low highword(0)
  3661  002096  6EED               	movwf	postdec0
  3662  002098  52ED               	movf	postdec0
  3663                           	line	36
  3664  00209A  D080               	goto	l359
  3665                           	line	37
  3666                           	
  3667  00209C                     l360:		; BSR set to: ?
  3668                           
  3669                           	line	38
  3670  00209C  D00D               	goto	l361
  3671                           	
  3672  00209E                     l362:		; BSR set to: ?
  3673                           
  3674                           	line	39
  3675  00209E  0100               	movlb	0	; () banked
  3676  0020A0  0100               	movlb	0	; () banked
  3677  0020A2  2BEF               	incf	((___ftpack@exp))&0ffh
  3678                           	line	40
  3679  0020A4  C0ED  FFE9         	movff	(___ftpack@arg),fsr0l
  3680  0020A8  C0EE  FFEA         	movff	(___ftpack@arg+1),fsr0h
  3681  0020AC  52EC               	movf	preinc0
  3682  0020AE  52EC               	movf	preinc0
  3683  0020B0  90D8               	bcf	status,0
  3684  0020B2  32ED               	rrcf	postdec0
  3685  0020B4  32ED               	rrcf	postdec0
  3686  0020B6  32EF               	rrcf	indf0
  3687                           	line	41
  3688                           	
  3689  0020B8                     l361:		; BSR set to: ?
  3690                           
  3691                           	line	38
  3692  0020B8  C0ED  FFE9         	movff	(___ftpack@arg),fsr0l
  3693  0020BC  C0EE  FFEA         	movff	(___ftpack@arg+1),fsr0h
  3694  0020C0  52EE               	movf	postinc0
  3695  0020C2  52EE               	movf	postinc0
  3696  0020C4  0EFE               	movlw	low highword(0FE0000h)
  3697  0020C6  14ED               	andwf	postdec0,w
  3698  0020C8  A4D8               	btfss	status,2
  3699  0020CA  D001               	goto	u1501
  3700  0020CC  D001               	goto	u1500
  3701  0020CE                     u1501:
  3702  0020CE  D7E7               	goto	l362
  3703  0020D0                     u1500:
  3704                           	
  3705  0020D0                     l363:		; BSR set to: ?
  3706                           
  3707                           	line	42
  3708  0020D0  D016               	goto	l364
  3709                           	
  3710  0020D2                     l365:		; BSR set to: ?
  3711                           
  3712                           	line	43
  3713  0020D2  0100               	movlb	0	; () banked
  3714  0020D4  0100               	movlb	0	; () banked
  3715  0020D6  2BEF               	incf	((___ftpack@exp))&0ffh
  3716                           	line	44
  3717  0020D8  C0ED  FFE9         	movff	(___ftpack@arg),fsr0l
  3718  0020DC  C0EE  FFEA         	movff	(___ftpack@arg+1),fsr0h
  3719  0020E0  2AEE               	incf	postinc0
  3720  0020E2  0E00               	movlw	0
  3721  0020E4  22EE               	addwfc	postinc0
  3722  0020E6  22ED               	addwfc	postdec0
  3723  0020E8  52ED               	movf	postdec0
  3724                           	line	45
  3725  0020EA  C0ED  FFE9         	movff	(___ftpack@arg),fsr0l
  3726  0020EE  C0EE  FFEA         	movff	(___ftpack@arg+1),fsr0h
  3727  0020F2  52EC               	movf	preinc0
  3728  0020F4  52EC               	movf	preinc0
  3729  0020F6  90D8               	bcf	status,0
  3730  0020F8  32ED               	rrcf	postdec0
  3731  0020FA  32ED               	rrcf	postdec0
  3732  0020FC  32EF               	rrcf	indf0
  3733                           	line	46
  3734                           	
  3735  0020FE                     l364:		; BSR set to: ?
  3736                           
  3737                           	line	42
  3738  0020FE  C0ED  FFE9         	movff	(___ftpack@arg),fsr0l
  3739  002102  C0EE  FFEA         	movff	(___ftpack@arg+1),fsr0h
  3740  002106  52EE               	movf	postinc0
  3741  002108  52EE               	movf	postinc0
  3742  00210A  0EFF               	movlw	low highword(0FF0000h)
  3743  00210C  14ED               	andwf	postdec0,w
  3744  00210E  A4D8               	btfss	status,2
  3745  002110  D001               	goto	u1511
  3746  002112  D001               	goto	u1510
  3747  002114                     u1511:
  3748  002114  D7DE               	goto	l365
  3749  002116                     u1510:
  3750                           	
  3751  002116                     l366:		; BSR set to: ?
  3752                           
  3753                           	line	47
  3754  002116  D00C               	goto	l367
  3755                           	
  3756  002118                     l368:		; BSR set to: ?
  3757                           
  3758                           	line	48
  3759  002118  0100               	movlb	0	; () banked
  3760  00211A  0100               	movlb	0	; () banked
  3761  00211C  07EF               	decf	((___ftpack@exp))&0ffh
  3762                           	line	49
  3763  00211E  C0ED  FFE9         	movff	(___ftpack@arg),fsr0l
  3764  002122  C0EE  FFEA         	movff	(___ftpack@arg+1),fsr0h
  3765  002126  90D8               	bcf	status,0
  3766  002128  36EE               	rlcf	postinc0
  3767  00212A  36EE               	rlcf	postinc0
  3768  00212C  36ED               	rlcf	postdec0
  3769  00212E  52ED               	movf	postdec0
  3770                           	line	50
  3771                           	
  3772  002130                     l367:		; BSR set to: ?
  3773                           
  3774                           	line	47
  3775  002130  C0ED  FFE9         	movff	(___ftpack@arg),fsr0l
  3776  002134  C0EE  FFEA         	movff	(___ftpack@arg+1),fsr0h
  3777  002138  CFEE F0F0          	movff	postinc0,??___ftpack+0+0
  3778  00213C  CFEE F0F1          	movff	postinc0,??___ftpack+0+0+1
  3779  002140  CFEE F0F2          	movff	postinc0,??___ftpack+0+0+2
  3780  002144  0100               	movlb	0	; () banked
  3781                           	
  3782  002146  AFF1               	btfss	(??___ftpack+0+1)&0ffh,(15)&7
  3783  002148  D001               	goto	u1521
  3784  00214A  D001               	goto	u1520
  3785  00214C                     u1521:
  3786  00214C  D7E5               	goto	l368
  3787  00214E                     u1520:
  3788                           	
  3789  00214E                     l369:		; BSR set to: ?
  3790                           
  3791                           	line	51
  3792  00214E  0100               	movlb	0	; () banked
  3793                           	
  3794  002150  0100               	movlb	0	; () banked
  3795  002152  B1EF               	btfsc	((___ftpack@exp))&0ffh,(0)&7
  3796  002154  D001               	goto	u1531
  3797  002156  D001               	goto	u1530
  3798  002158                     u1531:
  3799  002158  D00B               	goto	l370
  3800  00215A                     u1530:
  3801                           	line	52
  3802  00215A  C0ED  FFE9         	movff	(___ftpack@arg),fsr0l
  3803  00215E  C0EE  FFEA         	movff	(___ftpack@arg+1),fsr0h
  3804  002162  0EFF               	movlw	low(0FF7FFFh)
  3805  002164  16EE               	andwf	postinc0
  3806  002166  0E7F               	movlw	high(0FF7FFFh)
  3807  002168  16EE               	andwf	postinc0
  3808  00216A  0EFF               	movlw	low highword(0FF7FFFh)
  3809  00216C  16ED               	andwf	postdec0
  3810  00216E  52ED               	movf	postdec0
  3811                           	
  3812  002170                     l370:		; BSR set to: ?
  3813                           
  3814                           	line	53
  3815  002170  0100               	movlb	0	; () banked
  3816  002172  90D8               	bcf status,0
  3817  002174  33EF               	rrcf	((___ftpack@exp))&0ffh
  3818                           
  3819                           	line	54
  3820  002176  0100               	movlb	0	; () banked
  3821  002178  0100               	movlb	0	; () banked
  3822  00217A  51EF               	movf	((___ftpack@exp))&0ffh,w
  3823  00217C  0100               	movlb	0	; () banked
  3824  00217E  6FF2               	movwf	(??___ftpack+0+0+2)&0ffh
  3825  002180  6BF1               	clrf	(??___ftpack+0+0+1)&0ffh
  3826  002182  6BF0               	clrf	(??___ftpack+0+0)&0ffh
  3827  002184  C0ED  FFE9         	movff	(___ftpack@arg),fsr0l
  3828  002188  C0EE  FFEA         	movff	(___ftpack@arg+1),fsr0h
  3829  00218C  0100               	movlb	0	; () banked
  3830  00218E  51F0               	movf	(??___ftpack+0+0)&0ffh,w
  3831  002190  12EE               	iorwf	postinc0
  3832  002192  51F1               	movf	(??___ftpack+0+1)&0ffh,w
  3833  002194  12EE               	iorwf	postinc0
  3834  002196  51F2               	movf	(??___ftpack+0+2)&0ffh,w
  3835  002198  12ED               	iorwf	postdec0
  3836  00219A  52ED               	movf	postdec0
  3837                           	line	55
  3838  00219C                     l359:
  3839                           			; BSR set to: ?
  3840                           
  3841  00219C  0012               	return
  3842                           	opt stack 0
  3843                           GLOBAL __end_of___ftpack
  3844  00219E                     	__end_of___ftpack:
  3845                           	FNSIZE	___ftpack,3,3
  3846                           ; =============== function ___ftpack ends ======
                                 ======
  3847                           
  3848                           	signat	___ftpack,8312
  3849                           	global	_LCD_Write
  3850                           	global	??_LCD_Write
  3851                           	global	?_LCD_Write
  3852                                   psect   text14,class=CODE,space=0,reloc=
                                 2
  3853                           
  3854                           	opt lm
  3855                           	file	"A:\OneDrive\School\College\Junior\Fa23\Em
                                 b Sys\c\hw5\stepper\lcd_portd.c"
  3856                           	line	62
  3857  000000                     	__size_of_LCD_Write	equ	__end_of_LCD_Write-_LCD
                                 _Write
  3858                           ;lcd_portd.c: 61: void LCD_Write(unsigned char c
                                 )
  3859                           ;lcd_portd.c: 62: {
  3860                           	
  3861  002576                     _LCD_Write:		; BSR set to: ?
  3862                           
  3863                           	opt stack 29
  3864                           	line	63
  3865  002576  8483               	bsf	c:(31770/8),(31770)&7	;volatile
  3866                           	line	64
  3867                           ;lcd_portd.c: 64: PORTD = (PORTD & 0x0F) | (c & 
                                 0xF0);
  3868  002578  C0F1  F0F2         	movff	(LCD_Write@c),??_LCD_Write+0+0
  3869  00257C  0EF0               	movlw	0F0h
  3870  00257E  0100               	movlb	0	; () banked
  3871  002580  17F2               	andwf	(??_LCD_Write+0+0)&0ffh
  3872  002582  5083               	movf	((c:3971)),c,w	;volatile
  3873  002584  0B0F               	andlw	low(0Fh)
  3874  002586  0100               	movlb	0	; () banked
  3875  002588  11F2               	iorwf	(??_LCD_Write+0+0)&0ffh,w
  3876  00258A  6E83               	movwf	((c:3971)),c	;volatile
  3877                           	line	65
  3878                           ;lcd_portd.c: 65: LCD_Strobe();
  3879  00258C  ECF4  F012         	call	_LCD_Strobe	;wreg free
  3880                           	line	66
  3881                           ;lcd_portd.c: 66: PORTD = (PORTD & 0x0F) | ((c<<
                                 4) & 0xF0);
  3882  002590  C0F1  F0F2         	movff	(LCD_Write@c),??_LCD_Write+0+0
  3883  002594  0100               	movlb	0	; () banked
  3884  002596  3BF2               	swapf	(??_LCD_Write+0+0)&0ffh
  3885  002598  0EF0               	movlw	(0ffh shl 4) & 0ffh
  3886  00259A  17F2               	andwf	(??_LCD_Write+0+0)&0ffh
  3887  00259C  0EF0               	movlw	0F0h
  3888  00259E  0100               	movlb	0	; () banked
  3889  0025A0  17F2               	andwf	(??_LCD_Write+0+0)&0ffh
  3890  0025A2  5083               	movf	((c:3971)),c,w	;volatile
  3891  0025A4  0B0F               	andlw	low(0Fh)
  3892  0025A6  0100               	movlb	0	; () banked
  3893  0025A8  11F2               	iorwf	(??_LCD_Write+0+0)&0ffh,w
  3894  0025AA  6E83               	movwf	((c:3971)),c	;volatile
  3895                           	line	67
  3896                           ;lcd_portd.c: 67: LCD_Strobe();
  3897  0025AC  ECF4  F012         	call	_LCD_Strobe	;wreg free
  3898                           	line	69
  3899                           ;lcd_portd.c: 69: }
  3900  0025B0                     l128:
  3901                           			; BSR set to: ?
  3902                           
  3903  0025B0  0012               	return
  3904                           	opt stack 0
  3905                           GLOBAL __end_of_LCD_Write
  3906  0025B2                     	__end_of_LCD_Write:
  3907                           	FNSIZE	_LCD_Write,1,1
  3908                           ; =============== function _LCD_Write ends =====
                                 =======
  3909                           
  3910                           	signat	_LCD_Write,4216
  3911                           	global	___ftunpack
  3912                           	global	??___ftunpack
  3913                           	global	?___ftunpack
  3914                                   psect   text15,class=CODE,space=0,reloc=
                                 2
  3915                           
  3916                           	opt lm
  3917                           	file	"C:\Program Files (x86)\HI-TECH Software\P
                                 ICC-18\PRO\9.63\sources\float.c"
  3918                           	line	13
  3919  000000                     	__size_of___ftunpack	equ	__end_of___ftunpack-__
                                 _ftunpack
  3920                           	
  3921  00219E                     ___ftunpack:		; BSR set to: ?
  3922                           
  3923                           	opt stack 29
  3924                           	line	16
  3925  00219E  C0ED  FFE9         	movff	(___ftunpack@arg),fsr0l
  3926  0021A2  C0EE  FFEA         	movff	(___ftunpack@arg+1),fsr0h
  3927  0021A6  0E01               	movlw	1
  3928  0021A8  34EB               	rlcf	plusw0,w
  3929  0021AA  0E02               	movlw	2
  3930  0021AC  34EB               	rlcf	plusw0,w
  3931                           
  3932  0021AE  0100               	movlb	0	; () banked
  3933  0021B0  0100               	movlb	0	; () banked
  3934  0021B2  6FF1               	movwf	((___ftunpack@sign))&0ffh
  3935  0021B4  C0EF  FFE9         	movff	(___ftunpack@exp),fsr0l
  3936  0021B8  C0F0  FFEA         	movff	(___ftunpack@exp+1),fsr0h
  3937  0021BC  0100               	movlb	0	; () banked
  3938  0021BE  C0F1  FFEF         	movff	(___ftunpack@sign),indf0
  3939                           
  3940                           	line	17
  3941  0021C2  0100               	movlb	0	; () banked
  3942  0021C4  0100               	movlb	0	; () banked
  3943  0021C6  67F1               	tstfsz	((___ftunpack@sign))&0ffh
  3944  0021C8  D001               	goto	u1461
  3945  0021CA  D001               	goto	u1460
  3946  0021CC                     u1461:
  3947  0021CC  D00D               	goto	l357
  3948  0021CE                     u1460:
  3949                           	line	18
  3950  0021CE  C0ED  FFE9         	movff	(___ftunpack@arg),fsr0l
  3951  0021D2  C0EE  FFEA         	movff	(___ftunpack@arg+1),fsr0h
  3952  0021D6  0E00               	movlw	low(0)
  3953  0021D8  6EEE               	movwf	postinc0
  3954  0021DA  0E00               	movlw	high(0)
  3955  0021DC  6EEE               	movwf	postinc0
  3956  0021DE  0E00               	movlw	low highword(0)
  3957  0021E0  6EED               	movwf	postdec0
  3958  0021E2  52ED               	movf	postdec0
  3959                           	line	19
  3960  0021E4  0E00               	movlw	(0)&0ffh
  3961  0021E6  D02F               	goto	l356
  3962                           	line	20
  3963                           	
  3964  0021E8                     l357:		; BSR set to: ?
  3965                           
  3966                           	line	21
  3967  0021E8  0100               	movlb	0	; () banked
  3968  0021EA  6FF2               	movwf	(??___ftunpack+1+0)&0ffh
  3969  0021EC  0E00               	movlw	low(0)
  3970  0021EE  0100               	movlb	0	; () banked
  3971  0021F0  0100               	movlb	0	; () banked
  3972  0021F2  6FF1               	movwf	((___ftunpack@sign))&0ffh
  3973  0021F4  0100               	movlb	0	; () banked
  3974  0021F6  51F2               	movf	(??___ftunpack+1+0)&0ffh,w
  3975                           	line	22
  3976  0021F8  C0ED  FFE9         	movff	(___ftunpack@arg),fsr0l
  3977  0021FC  C0EE  FFEA         	movff	(___ftunpack@arg+1),fsr0h
  3978  002200  0E01               	movlw	0+(15/8)
  3979  002202  8EEB               	bsf	plusw0,(15)&7
  3980                           	line	23
  3981  002204  C0ED  FFE9         	movff	(___ftunpack@arg),fsr0l
  3982  002208  C0EE  FFEA         	movff	(___ftunpack@arg+1),fsr0h
  3983  00220C  CFEE F0F2          	movff	postinc0,??___ftunpack+1+0
  3984  002210  CFEE F0F3          	movff	postinc0,??___ftunpack+1+0+1
  3985  002214  CFEE F0F4          	movff	postinc0,??___ftunpack+1+0+2
  3986  002218  0100               	movlb	0	; () banked
  3987                           	
  3988  00221A  AFF4               	btfss	(??___ftunpack+1+2)&0ffh,(23)&7
  3989  00221C  D001               	goto	u1471
  3990  00221E  D001               	goto	u1470
  3991  002220                     u1471:
  3992  002220  D003               	goto	l358
  3993  002222                     u1470:
  3994                           	line	24
  3995  002222  0100               	movlb	0	; () banked
  3996  002224  0100               	movlb	0	; () banked
  3997  002226  2BF1               	incf	((___ftunpack@sign))&0ffh
  3998                           	
  3999  002228                     l358:		; BSR set to: ?
  4000                           
  4001                           	line	25
  4002  002228  C0ED  FFE9         	movff	(___ftunpack@arg),fsr0l
  4003  00222C  C0EE  FFEA         	movff	(___ftunpack@arg+1),fsr0h
  4004  002230  0EFF               	movlw	low(0FFFFh)
  4005  002232  16EE               	andwf	postinc0
  4006  002234  0EFF               	movlw	high(0FFFFh)
  4007  002236  16EE               	andwf	postinc0
  4008  002238  0E00               	movlw	low highword(0FFFFh)
  4009  00223A  16ED               	andwf	postdec0
  4010  00223C  52ED               	movf	postdec0
  4011                           	line	26
  4012  00223E  0100               	movlb	0	; () banked
  4013  002240  0100               	movlb	0	; () banked
  4014  002242  51F1               	movf	((___ftunpack@sign))&0ffh,w
  4015  002244  D000               	goto	l356
  4016                           	line	27
  4017  002246                     l356:
  4018                           			; BSR set to: ?
  4019                           
  4020  002246  0012               	return
  4021                           	opt stack 0
  4022                           GLOBAL __end_of___ftunpack
  4023  002248                     	__end_of___ftunpack:
  4024                           	FNSIZE	___ftunpack,4,4
  4025                           ; =============== function ___ftunpack ends ====
                                 ========
  4026                           
  4027                           	signat	___ftunpack,8313
  4028                           	global	_LCD_Strobe
  4029                           	global	??_LCD_Strobe
  4030                           	global	?_LCD_Strobe
  4031                                   psect   text16,class=CODE,space=0,reloc=
                                 2
  4032                           
  4033                           	opt lm
  4034                           	file	"A:\OneDrive\School\College\Junior\Fa23\Em
                                 b Sys\c\hw5\stepper\lcd_portd.c"
  4035                           	line	32
  4036  000000                     	__size_of_LCD_Strobe	equ	__end_of_LCD_Strobe-_L
                                 CD_Strobe
  4037                           ;lcd_portd.c: 31: void LCD_Strobe(void)
  4038                           ;lcd_portd.c: 32: {
  4039                           	
  4040  0025E8                     _LCD_Strobe:		; BSR set to: ?
  4041                           
  4042                           	opt stack 28
  4043                           	line	33
  4044                           ;lcd_portd.c: 33: RD3 = 0;
  4045  0025E8  9683               	bcf	c:(31771/8),(31771)&7	;volatile
  4046                           	line	34
  4047                           ;lcd_portd.c: 34: LCD_Pause();
  4048  0025EA  ECD9  F012         	call	_LCD_Pause	;wreg free
  4049                           	line	35
  4050                           ;lcd_portd.c: 35: RD3 = 1;
  4051  0025EE  8683               	bsf	c:(31771/8),(31771)&7	;volatile
  4052                           	line	36
  4053                           ;lcd_portd.c: 36: LCD_Pause();
  4054  0025F0  ECD9  F012         	call	_LCD_Pause	;wreg free
  4055                           	line	37
  4056                           ;lcd_portd.c: 37: RD3 = 0;
  4057  0025F4  9683               	bcf	c:(31771/8),(31771)&7	;volatile
  4058                           	line	38
  4059                           ;lcd_portd.c: 38: LCD_Pause();
  4060  0025F6  ECD9  F012         	call	_LCD_Pause	;wreg free
  4061                           	line	39
  4062                           ;lcd_portd.c: 39: }
  4063  0025FA                     l121:
  4064                           			; BSR set to: ?
  4065                           
  4066  0025FA  0012               	return
  4067                           	opt stack 0
  4068                           GLOBAL __end_of_LCD_Strobe
  4069  0025FC                     	__end_of_LCD_Strobe:
  4070                           	FNSIZE	_LCD_Strobe,0,0
  4071                           ; =============== function _LCD_Strobe ends ====
                                 ========
  4072                           
  4073                           	signat	_LCD_Strobe,88
  4074                           	global	_Wait_ms
  4075                           	global	??_Wait_ms
  4076                           	global	?_Wait_ms
  4077                                   psect   text17,class=CODE,space=0,reloc=
                                 2
  4078                           
  4079                           	opt lm
  4080                           	file	"A:\OneDrive\School\College\Junior\Fa23\Em
                                 b Sys\c\hw5\stepper\lcd_portd.c"
  4081                           	line	16
  4082  000000                     	__size_of_Wait_ms	equ	__end_of_Wait_ms-_Wait_ms
  4083                           ;lcd_portd.c: 15: void Wait_ms(unsigned int X)
  4084                           ;lcd_portd.c: 16: {
  4085                           	
  4086  00235E                     _Wait_ms:		; BSR set to: ?
  4087                           
  4088                           	opt stack 28
  4089                           	line	19
  4090                           ;lcd_portd.c: 17: unsigned int i, j;
  4091                           ;lcd_portd.c: 19: for (i=0; i<X; i++)
  4092  00235E  0E00               	movlw	low(0)
  4093  002360  0100               	movlb	0	; () banked
  4094  002362  0100               	movlb	0	; () banked
  4095  002364  6FE5               	movwf	((Wait_ms@i))&0ffh
  4096  002366  0E00               	movlw	high(0)
  4097  002368  0100               	movlb	0	; () banked
  4098  00236A  6FE6               	movwf	((Wait_ms@i+1))&0ffh
  4099  00236C  D026               	goto	l113
  4100                           	line	20
  4101                           	
  4102  00236E                     l110:		; BSR set to: ?
  4103                           
  4104                           ;lcd_portd.c: 20: for (j=0; j<617; j++);
  4105  00236E  0E00               	movlw	low(0)
  4106  002370  0100               	movlb	0	; () banked
  4107  002372  0100               	movlb	0	; () banked
  4108  002374  6FE7               	movwf	((Wait_ms@j))&0ffh
  4109  002376  0E00               	movlw	high(0)
  4110  002378  0100               	movlb	0	; () banked
  4111  00237A  6FE8               	movwf	((Wait_ms@j+1))&0ffh
  4112  00237C  0E69               	movlw	069h
  4113  00237E  0100               	movlb	0	; () banked
  4114  002380  0100               	movlb	0	; () banked
  4115  002382  5DE7               	subwf	((Wait_ms@j))&0ffh,w
  4116  002384  0E02               	movlw	02h
  4117  002386  0100               	movlb	0	; () banked
  4118  002388  59E8               	subwfb	((Wait_ms@j+1))&0ffh,w
  4119  00238A  A0D8               	btfss	status,0
  4120  00238C  D001               	goto	u751
  4121  00238E  D001               	goto	u750
  4122  002390                     u751:
  4123  002390  D001               	goto	l114
  4124  002392                     u750:
  4125  002392  D00F               	goto	l115
  4126                           	
  4127  002394                     l114:		; BSR set to: ?
  4128                           
  4129  002394  0100               	movlb	0	; () banked
  4130  002396  0100               	movlb	0	; () banked
  4131  002398  4BE7               	infsnz	((Wait_ms@j))&0ffh
  4132  00239A  2BE8               	incf	((Wait_ms@j+1))&0ffh
  4133  00239C  0E69               	movlw	069h
  4134  00239E  0100               	movlb	0	; () banked
  4135  0023A0  0100               	movlb	0	; () banked
  4136  0023A2  5DE7               	subwf	((Wait_ms@j))&0ffh,w
  4137  0023A4  0E02               	movlw	02h
  4138  0023A6  0100               	movlb	0	; () banked
  4139  0023A8  59E8               	subwfb	((Wait_ms@j+1))&0ffh,w
  4140  0023AA  A0D8               	btfss	status,0
  4141  0023AC  D001               	goto	u761
  4142  0023AE  D001               	goto	u760
  4143  0023B0                     u761:
  4144  0023B0  D7F1               	goto	l114
  4145  0023B2                     u760:
  4146                           	
  4147  0023B2                     l115:		; BSR set to: ?
  4148                           
  4149                           	line	19
  4150  0023B2  0100               	movlb	0	; () banked
  4151  0023B4  0100               	movlb	0	; () banked
  4152  0023B6  4BE5               	infsnz	((Wait_ms@i))&0ffh
  4153  0023B8  2BE6               	incf	((Wait_ms@i+1))&0ffh
  4154                           	
  4155  0023BA                     l113:		; BSR set to: ?
  4156                           
  4157  0023BA  0100               	movlb	0	; () banked
  4158  0023BC  0100               	movlb	0	; () banked
  4159  0023BE  51E3               	movf	((Wait_ms@X))&0ffh,w
  4160  0023C0  0100               	movlb	0	; () banked
  4161  0023C2  0100               	movlb	0	; () banked
  4162  0023C4  5DE5               	subwf	((Wait_ms@i))&0ffh,w
  4163  0023C6  0100               	movlb	0	; () banked
  4164  0023C8  0100               	movlb	0	; () banked
  4165  0023CA  51E4               	movf	((Wait_ms@X+1))&0ffh,w
  4166  0023CC  0100               	movlb	0	; () banked
  4167  0023CE  0100               	movlb	0	; () banked
  4168  0023D0  59E6               	subwfb	((Wait_ms@i+1))&0ffh,w
  4169  0023D2  A0D8               	btfss	status,0
  4170  0023D4  D001               	goto	u771
  4171  0023D6  D001               	goto	u770
  4172  0023D8                     u771:
  4173  0023D8  D7CA               	goto	l110
  4174  0023DA                     u770:
  4175                           	
  4176  0023DA                     l111:		; BSR set to: ?
  4177                           
  4178                           	line	21
  4179                           ;lcd_portd.c: 21: }
  4180  0023DA                     l109:
  4181                           			; BSR set to: ?
  4182                           
  4183  0023DA  0012               	return
  4184                           	opt stack 0
  4185                           GLOBAL __end_of_Wait_ms
  4186  0023DC                     	__end_of_Wait_ms:
  4187                           	FNSIZE	_Wait_ms,4,2
  4188                           ; =============== function _Wait_ms ends =======
                                 =====
  4189                           
  4190                           	signat	_Wait_ms,4216
  4191                           	global	_LCD_Pause
  4192                           	global	??_LCD_Pause
  4193                           	global	?_LCD_Pause
  4194                                   psect   text18,class=CODE,space=0,reloc=
                                 2
  4195                           
  4196                           	opt lm
  4197                           	file	"A:\OneDrive\School\College\Junior\Fa23\Em
                                 b Sys\c\hw5\stepper\lcd_portd.c"
  4198                           	line	25
  4199  000000                     	__size_of_LCD_Pause	equ	__end_of_LCD_Pause-_LCD
                                 _Pause
  4200                           ;lcd_portd.c: 24: void LCD_Pause(void)
  4201                           ;lcd_portd.c: 25: {
  4202                           	
  4203  0025B2                     _LCD_Pause:		; BSR set to: ?
  4204                           
  4205                           	opt stack 27
  4206                           	line	27
  4207  0025B2  0100               	movlb	0	; () banked
  4208  0025B4  6FF4               	movwf	(??_LCD_Pause+1+0)&0ffh
  4209  0025B6  0E00               	movlw	low(0)
  4210  0025B8  0100               	movlb	0	; () banked
  4211  0025BA  0100               	movlb	0	; () banked
  4212  0025BC  6FF3               	movwf	((LCD_Pause@x))&0ffh
  4213  0025BE  0100               	movlb	0	; () banked
  4214  0025C0  51F4               	movf	(??_LCD_Pause+1+0)&0ffh,w
  4215  0025C2  0E13               	movlw	(014h-1)
  4216  0025C4  0100               	movlb	0	; () banked
  4217  0025C6  0100               	movlb	0	; () banked
  4218  0025C8  65F3               	cpfsgt	((LCD_Pause@x))&0ffh
  4219  0025CA  D001               	goto	u781
  4220  0025CC  D001               	goto	u780
  4221  0025CE                     u781:
  4222  0025CE  D001               	goto	l118
  4223  0025D0                     u780:
  4224  0025D0  D00A               	goto	l119
  4225                           	
  4226  0025D2                     l118:		; BSR set to: ?
  4227                           
  4228  0025D2  0100               	movlb	0	; () banked
  4229  0025D4  0100               	movlb	0	; () banked
  4230  0025D6  2BF3               	incf	((LCD_Pause@x))&0ffh
  4231  0025D8  0E13               	movlw	(014h-1)
  4232  0025DA  0100               	movlb	0	; () banked
  4233  0025DC  0100               	movlb	0	; () banked
  4234  0025DE  65F3               	cpfsgt	((LCD_Pause@x))&0ffh
  4235  0025E0  D001               	goto	u791
  4236  0025E2  D001               	goto	u790
  4237  0025E4                     u791:
  4238  0025E4  D7F6               	goto	l118
  4239  0025E6                     u790:
  4240                           	
  4241  0025E6                     l119:		; BSR set to: ?
  4242                           
  4243                           	line	28
  4244                           ;lcd_portd.c: 28: }
  4245  0025E6                     l117:
  4246+                          			; BSR set to: ?
  4247+                          
  4248+ 0025E6  0012               	return
  4249+                          	opt stack 0
  4250+                          GLOBAL __end_of_LCD_Pause
  4251+ 0025E8                     	__end_of_LCD_Pause:
  4252+                          	FNSIZE	_LCD_Pause,2,0
  4253+                          ; =============== function _LCD_Pause ends =====
      +                          =======
  4254+                          
  4255+                          	signat	_LCD_Pause,88
  4256+                          	FNCALL	_main,_LCD_Init
  4257+                          	FNCALL	_main,_LCD_Move
  4258+                          	FNCALL	_main,_LCD_Write
  4259+                          	FNCALL	_main,_Wait_ms
  4260+                          	FNCALL	_main,_A2D_Read
  4261+                          	FNCALL	_main,___lwtoft
  4262+                          	FNCALL	_main,___ftdiv
  4263+                          	FNCALL	_main,___ftadd
  4264+                          	FNCALL	_main,___fttol
  4265+                          	FNCALL	_main,___wmul
  4266+                          	FNCALL	_main,_LCD_Out
  4267+                          	FNCALL	___ftdiv,___ftunpack
  4268+                          	FNCALL	___ftdiv,___ftpack
  4269+                          	FNCALL	___lwtoft,___ftpack
  4270+                          	FNCALL	___ftadd,___ftunpack
  4271+                          	FNCALL	___ftadd,___ftpack
  4272+                          	FNCALL	_LCD_Out,_LCD_Write
  4273+                          	FNCALL	_LCD_Out,___almod
  4274+                          	FNCALL	_LCD_Out,___aldiv
  4275+                          	FNCALL	___fttol,___ftunpack
  4276+                          	FNCALL	_LCD_Init,_LCD_Inst
  4277+                          	FNCALL	_LCD_Init,_Wait_ms
  4278+                          	FNCALL	_LCD_Move,_LCD_Inst
  4279+                          	FNCALL	_LCD_Inst,_LCD_Strobe
  4280+                          	FNCALL	_LCD_Inst,_Wait_ms
  4281+                          	FNCALL	_LCD_Write,_LCD_Strobe
  4282+                          	FNCALL	_LCD_Strobe,_LCD_Pause
  4283+                          	FNROOT	_main
  4284+                          ;	FNARG	___ftdiv,_A2D_Read
  4285+                          ;	FNARG	___ftdiv,___lwtoft
  4286+                          ;	FNARG	___ftadd,_A2D_Read
  4287+                          ;	FNARG	___ftadd,___ftdiv
  4288+                          ;	FNARG	___ftadd,___lwtoft
  4289+                                  psect   smallconst,class=SMALLCONST,spac
      +                          e=0,reloc=2
  4290+ 001000  00                 	db	0	;reserve
  4291+                          	global	_MSG0
  4292+                          	file	"A:\OneDrive\School\College\Junior\Fa23\Em
      +                          b Sys\c\hw5\stepper\stepepr.c"
  4293+                          	line	2
  4294+ 001001                     _MSG0:
  4295+ 001001  43                 	db	low(043h)
  4296+ 001002  6F                 	db	low(06Fh)
  4297+ 001003  6D                 	db	low(06Dh)
  4298+ 001004  62                 	db	low(062h)
  4299+ 001005  69                 	db	low(069h)
  4300+ 001006  6E                 	db	low(06Eh)
  4301+ 001007  61                 	db	low(061h)
  4302+ 001008  74                 	db	low(074h)
  4303+ 001009  69                 	db	low(069h)
  4304+ 00100A  6F                 	db	low(06Fh)
  4305+ 00100B  6E                 	db	low(06Eh)
  4306+ 00100C  20                 	db	low(020h)
  4307+ 00100D  4C                 	db	low(04Ch)
  4308+ 00100E  6F                 	db	low(06Fh)
  4309+ 00100F  63                 	db	low(063h)
  4310+ 001010  6B                 	db	low(06Bh)
  4311+ 001011  20                 	db	low(020h)
  4312+ 001012  00                 	db	low(0)
  4313+ 001013  00                 	db   0
  4314+ 001014  00                 	db   0
  4315+ 001015  00                 	db   0
  4316+                          	global	_TABLE
  4317+                          	line	3
  4318+ 001016                     _TABLE:
  4319+ 001016  01                 	db	low(01h)
  4320+ 001017  02                 	db	low(02h)
  4321+ 001018  04                 	db	low(04h)
  4322+ 001019  08                 	db	low(08h)
  4323+                          	global	_MSG0
  4324+                          	global	_TABLE
  4325+                          	global	_ADRES
  4326+ 000000                     _ADRES	equ	0xFC3
  4327+                          	global	_ADCON0
  4328+ 000000                     _ADCON0	equ	0xFC2
  4329+                          	global	_ADCON1
  4330+ 000000                     _ADCON1	equ	0xFC1
  4331+                          	global	_ADCON2
  4332+ 000000                     _ADCON2	equ	0xFC0
  4333+                          	global	_PORTC
  4334+ 000000                     _PORTC	equ	0xF82
  4335+                          	global	_PORTD
  4336+ 000000                     _PORTD	equ	0xF83
  4337+                          	global	_TRISA
  4338+ 000000                     _TRISA	equ	0xF92
  4339+                          	global	_TRISB
  4340+ 000000                     _TRISB	equ	0xF93
  4341+                          	global	_TRISC
  4342+ 000000                     _TRISC	equ	0xF94
  4343+                          	global	_TRISD
  4344+ 000000                     _TRISD	equ	0xF95
  4345+                          	global	_TRISE
  4346+ 000000                     _TRISE	equ	0xF96
  4347+                          	global	_TXREG
  4348+ 000000                     _TXREG	equ	0xFAD
  4349+                          	global	_GODONE
  4350+ 000000                     _GODONE	equ	0x7E11
  4351+                          	global	_RB0
  4352+ 000000                     _RB0	equ	0x7C08
  4353+                          	global	_RB1
  4354+ 000000                     _RB1	equ	0x7C09
  4355+                          	global	_RD1
  4356+ 000000                     _RD1	equ	0x7C19
  4357+                          	global	_RD2
  4358+ 000000                     _RD2	equ	0x7C1A
  4359+                          	global	_RD3
  4360+ 000000                     _RD3	equ	0x7C1B
  4361+                          	global	_TRMT
  4362+ 000000                     _TRMT	equ	0x7D61
  4363+ 00101A  00                 	db 0	; dummy byte at the end
  4364+                          	psect	intsave_regs,class=BIGRAM,space=1
  4365+                          	PSECT	param0,class=BANK0,space=1
  4366+                          	GLOBAL	__Lparam0
  4367+                          	FNCONF	param0,??,?
  4368+                          GLOBAL	__Lparam, __Hparam
  4369+                          GLOBAL	__Lparam0, __Hparam0
  4370+ 000000                     __Lparam	EQU	__Lparam0
  4371+ 000000                     __Hparam	EQU	__Hparam0


HI-TECH Software PICC-18 Macro Assembler V9.63PL3 build 4692 
Symbol Table                                           Mon Oct 02 17:18:20 2023

___wmul@multiplicand 00E1          ?_LCD_Strobe 00F3  
       ___ftadd@exp1 00E9         ___ftadd@exp2 00E8  
       ___ftadd@cntr 00E6                  l110 236E  
                l111 23DA                  l113 23BA  
                l121 25FA                  l114 2394  
                l122 2574                  l130 1D92  
                l115 23B2                  l123 235C  
                l131 1C4E                  l220 1978  
                l124 22F8                  l132 1C62  
                l117 25E6                  l109 23DA  
                l221 199E                  l125 2318  
                l133 1C82                  l118 25D2  
                l230 1EDA                  l126 233A  
                l134 1D1E                  l119 25E6  
                l231 1E4A                  l215 1A7C  
                l223 1A3C                  l127 235C  
                l128 25B0                  l232 1E30  
                l224 199E                  l216 1906  
                l136 1D30                  l233 1E56  
                l225 1A20                  l217 193A  
                l129 22D8                  l137 1D92  
                l401 176E                  l226 1A6A  
                l218 1A3C                  l410 186A  
                l170 24AE                  l227 1F1A  
                l235 1EDA                  l219 1992  
                l139 1D56                  l411 18AA  
                l403 1744                  l236 1E56  
                l228 1DE0                  l404 1712  
                l172 24B6                  l420 1BFC  
                l180 11FC                  l237 1EBE  
                l229 1E0C                  l405 175C  
                l413 1C0A                  l181 11F4  
                l238 1F08                  l406 1746  
                l166 24C0                  l414 1ADE  
                l190 13A8                  l174 1088  
                l407 176E                  l167 2496  
                l415 1B26                  l183 11FC  
                l175 10C8                  l360 209C  
                l440 1FCA                  l408 17AC  
                l168 24AA                  l520 2450  
                l184 13D2                  l361 20B8  
                l441 1FAE                  l409 17EA  
                l521 2406                  l417 1BCE  
                l177 157A                  l185 13A8  
                l370 2170                  l362 209E  
                l442 201E                  l522 2526  
                l418 1B50                  l186 1294  
                l178 1142                  l363 20D0  
                l443 1FF6                  l419 1BB6  
                l187 1302                  l356 2246  
                l364 20FE                  l444 2012  
                l436 205E                  l524 251C  
                l357 21E8                  l365 20D2  
                l445 1FF8                  l437 1FCC  
                l525 24D0                  l189 133A  
                l358 2228                  l366 2116  
                l446 201E                  l526 24F4  
                l367 2130                  l359 219C  
                l447 204C                  l391 16C4  
                l368 2118                  l369 214E  
                l393 169A                  l385 18B8  
                l394 1668                  l386 1582  
                l395 16B2                  l387 15CA  
                l396 169C                  l388 186A  
                l397 16C4                  l389 16C6  
                l398 176E                  l399 176E  
                _RB0 007C08                  _RB1 007C09  
                _RD1 007C19                  _RD2 007C1A  
                _RD3 007C1B                  u800 22E6  
                u801 22E4                  u810 2306  
                u811 2304                  u820 2328  
                u900 2494                  u821 2326  
                u901 2492                  u750 2392  
                u830 234A                  u910 24AA  
                u751 2390                  u831 2348  
                u911 24A8                  u760 23B2  
                u840 1C18                  u920 24B6  
                u761 23B0                  u841 1C16  
                u921 24B4                  u770 23DA  
                u850 1C80                  u930 1086  
                u771 23D8                  u851 1C7E  
                u931 1084                  u780 25D0  
                u860 1D1E                  u940 10C8  
                u781 25CE                  u861 1D1C  
                u941 10C6                  u790 25E6  
                u870 1D2E                  u950 11D2  
                u791 25E4                  u871 1D2C  
                u951 11D0                  u880 1D42  
                u960 11FC                  u881 1D40  
                u961 11FA                  u890 1D92  
                u970 1204                  u891 1D90  
                u971 1202                  u980 126E  
                u981 126C                  u990 1292  
                u991 1290     __end_of_A2D_Read 24C2  
    __end_of_LCD_Out 1D94         ___ftdiv@exp1 00E7  
       ___ftdiv@exp2 00E5        ___ftadd@sign1 00E7  
      ___ftadd@sign2 00E5                 u1000 1302  
               u1001 1300                 u1010 1338  
               u1011 1336                 u1100 1DEC  
               u1020 13A8                 u1101 1DEA  
               u1021 13A6                 u1110 1E1E  
               u1030 18D6                 u1111 1E1C  
               u1031 18D4                 u1120 1E56  
               u1040 1912                 u1121 1E54  
               u1041 1910                 u1130 1E8E  
               u1050 1966                 u1131 1E8C  
               u1051 1964                 u1140 1EE8  
               u1060 199E                 u1141 1EE6  
               u1061 199C                 u1070 19EA  
               u1071 19E8                 u1080 1A4A  
               u1081 1A48                 u1090 1DB0  
               u1091 1DAE                 u1500 20D0  
               u1501 20CE                 u1510 2116  
               u1511 2114                 u1520 214E  
               u1600 16DA                 u1521 214C  
               u1601 16D8                 u1530 215A  
               u1610 16F8                 u1531 2158  
               u1611 16F6                 u1460 21CE  
               u1620 173C                 u1540 15BC  
               u1700 1B8C                 u1461 21CC  
               u1621 173A                 u1541 15BA  
               u1701 1B8A                 u1470 2222  
               u1630 176E                 u1550 1606  
               u1710 1BF6                 u1471 2220  
               u1631 176C                 u1551 1604  
               u1711 1BF4                 u1480 206E  
               u1800 201E                 u1640 177C  
               u1560 1628                 u1481 206C  
               u1801 201C                 u1641 177A  
               u1561 1626                 u1490 2084  
               u1810 202C                 u1650 17BA  
               u1570 1646                 u1491 2082  
               u1811 202A                 u1651 17B8  
               u1571 1644                 u1660 182A  
               u1580 1692                 u1661 1828  
               u1581 1690                 u1670 1892  
               u1590 16C4                 u1671 1890  
               u1591 16C2                 u1840 23EC  
               u1680 1AD0                 u1841 23EA  
               u1681 1ACE                 u1770 1F80  
               u1850 24DC                 u1690 1B18  
               u1771 1F7E                 u1851 24DA  
               u1691 1B16                 u1780 1F92  
               u1860 251C                 u1781 1F90  
               u1861 251A                 u1790 1FDA  
               u1791 1FD8                 _MSG0 1001  
               _TRMT 007D61                 _main 101C  
       ___ftpack@arg 00ED         ___ftpack@exp 00EF  
               fsr0h 000FEA                 indf0 000FEF  
               fsr0l 000FE9                 start 0800  
        LCD_Out@DATA 00DF          LCD_Move@Col 00E0  
        LCD_Move@Row 00DF         ___fttol@exp1 00E4  
       ___fttol@lval 00E5     __end_of_LCD_Init 22DA  
   __end_of_LCD_Inst 2576     __end_of_LCD_Move 235E  
    __end_of_Wait_ms 23DC        ___ftdiv@sign1 00E6  
      ___ftdiv@sign2 00E8      __end_of___aldiv 1A7E  
    __end_of___almod 1F1C                ?_main 00CF  
              _ADRES 000FC3      __end_of___ftadd 18BA  
    __end_of___ftdiv 1C0C      __end_of___fttol 2060  
              _TABLE 1016                _PORTC 000F82  
              _PORTD 000F83                _TRISA 000F92  
              _TRISB 000F93                _TRISC 000F94  
              _TRISD 000F95                _TRISE 000F96  
              _TXREG 000FAD            A2D_Read@c 00DF  
          A2D_Read@i 00E1                main@T 00CF  
              main@X 00D5                main@Y 00D7  
              main@Z 00D9                main@i 00DB  
              tablat 000FF5                plusw0 000FEB  
              status 000FD8         __end_of_main 1580  
             ??_main 00CF        ___fttol@sign1 00E3  
      __activetblptr 000003    __end_of_LCD_Pause 25E8  
          ??_LCD_Out 00E5    __end_of_LCD_Write 25B2  
             _ADCON0 000FC2               _ADCON1 000FC1  
             _ADCON2 000FC0     __end_of___ftpack 219E  
             _GODONE 007E11     __end_of___lwtoft 2452  
             __Ldata 000000            ??_Wait_ms 00E5  
          ??___aldiv 00F9            ??___almod 00F9  
             ___wmul 24C2            ??___ftadd 00E5  
          ??___ftdiv 00E5            ??___fttol 00E3  
          ?_A2D_Read 00DF         __mediumconst 101C  
             preinc0 000FEC               tblptrh 000FF7  
             tblptrl 000FF6               tblptru 000FF8  
         __accesstop 0080            ?_LCD_Init 00DF  
          ?_LCD_Inst 00E1            ?_LCD_Move 00DF  
         ___ftadd@f1 00DF           ___ftadd@f2 00E2  
         ___ftdiv@f1 00DF           ___ftdiv@f2 00E2  
         ___ftdiv@f3 00E9            LCD_Inst@c 00E1  
         ___fttol@f1 00DF           ___ftunpack 219E  
         ??_A2D_Read 00E1         ??_LCD_Strobe 00F3  
         ___lwtoft@c 00DF           ??_LCD_Init 00DF  
         ??_LCD_Inst 00E2           ??_LCD_Move 00E1  
 __end_of_LCD_Strobe 25FC              ?___wmul 00DF  
     ___ftunpack@arg 00ED       ___ftunpack@exp 00EF  
          l600000204 2084            l600000205 169A  
          l600000206 1744            ?___ftpack 00ED  
          ?___lwtoft 00DF              _LCD_Out 1C0C  
            __Hparam 0100              __Lparam 00CF  
            _Wait_ms 235E          ?___ftunpack 00ED  
            ___aldiv 18BA              ___almod 1D94  
            ___ftadd 1580              ___ftdiv 1A7E  
            ___fttol 1F1C           ??___ftpack 00F0  
            __ramtop 1000           ??___lwtoft 00E2  
   ___aldiv@dividend 00F1              main@A2D 00D1  
          _LCD_Pause 25B2            _LCD_Write 2576  
      __Lmediumconst 101C     ___aldiv@quotient 00FB  
            postdec0 000FED              postinc0 000FEE  
         ?_LCD_Pause 00F3           ?_LCD_Write 00F1  
         LCD_Pause@x 00F3       __end_of___wmul 2528  
         LCD_Write@c 00F1          ___lwtoft@f1 00E2  
           ??___wmul 00E3             ?_LCD_Out 00DF  
           LCD_Out@A 00E6             LCD_Out@D 00E3  
           LCD_Out@N 00E4             LCD_Out@i 00E5  
        ??_LCD_Pause 00F3          ??_LCD_Write 00F2  
           ?_Wait_ms 00E3         ??___ftunpack 00F1  
           ?___aldiv 00F1             ?___almod 00F1  
           ?___ftadd 00DF             ?___ftdiv 00DF  
           ?___fttol 00DF             _A2D_Read 2452  
   ___almod@dividend 00F1      ___ftunpack@sign 00F1  
        __smallconst 1000   __end_of___ftunpack 2248  
    ___aldiv@divisor 00F5      ___aldiv@counter 00F9  
           _LCD_Init 2248             _LCD_Inst 2528  
           _LCD_Move 22DA       ___wmul@product 00E3  
  ___wmul@multiplier 00DF             __Hparam0 0100  
           __Lparam0 00CF             Wait_ms@X 00E3  
           Wait_ms@i 00E5             Wait_ms@j 00E7  
       __Lsmallconst 1000             ___ftpack 2060  
           ___lwtoft 23DC      ___almod@divisor 00F5  
    ___almod@counter 00FA             main@STEP 00D3  
         _LCD_Strobe 25E8         ___aldiv@sign 00FA  
       ___almod@sign 00F9  
